(lp0
ccopy_reg
_reconstructor
p1
(c__main__
POSifiedText
p2
c__builtin__
object
p3
Ntp4
Rp5
(dp6
S'retain_original'
p7
I01
sS'rejoined_text'
p8
Vin israel , the past and the future find common ground . it \u2019s because israel cherishes life , that israel cherishes peace and seeks peace . i say to him and i say to you  yeah , right \u2026 that \u2019s like saying a nuclear - armed al - qaeda would usher in an era of universal peace . the simplest example is gunpowder and a fuse . that is , you light the fuse and set off the gunpowder . each day , that point is getting closer . that \u2019s why i speak today with such a sense of urgency . and that \u2019s why everyone should have a sense of urgency . what i have said today will help ensure that this common goal is achieved . israel is in discussions with the united states over this issue , and i am confident that we can chart a path forward together . let us commit ourselves today to defend these values so that we can defend our freedom and protect our common civilization . i ended that first speech by saying  gentlemen , check your fanaticism at the door . this conflict rages because for the palestinians , the real settlements they \u2019re after are haifa , jaffa and tel aviv . how can any of us expect young palestinians to support peace when their leaders poison their minds against peace ? we can do this . after 70 years , the world is embracing israel , and israel is embracing the world .
p9
sS'parsed_sentences'
p10
(lp11
(lp12
Vin::
p13
aVisrael::
p14
aV,::
p15
aVthe::
p16
aVpast::
p17
aVand::
p18
aVthe::
p19
aVfuture::
p20
aVfind::
p21
aVcommon::
p22
aVground::
p23
aV.::
p24
aa(lp25
Vit::PRON
p26
aV\u2019s::
p27
aVbecause::
p28
aVisrael::
p29
aVcherishes::
p30
aVlife::
p31
aV,::
p32
aVthat::
p33
aVisrael::
p34
aVcherishes::
p35
aVpeace::
p36
aVand::
p37
aVseeks::
p38
aVpeace::
p39
aV.::
p40
aa(lp41
Vi::
p42
aVsay::
p43
aVto::
p44
aVhim::
p45
aVand::
p46
aVi::
p47
aVsay::
p48
aVto::
p49
aVyou::
p50
aV:::
p51
aa(lp52
Vyeah::
p53
aV,::
p54
aVright::
p55
aV\u2026::
p56
aa(lp57
Vthat::
p58
aV\u2019s::
p59
aVlike::
p60
aVsaying::
p61
aVa::
p62
aVnuclear::
p63
aV-::
p64
aVarmed::
p65
aVal::
p66
aV-::
p67
aVqaeda::
p68
aVwould::
p69
aVusher::
p70
aVin::
p71
aVan::
p72
aVera::
p73
aVof::
p74
aVuniversal::
p75
aVpeace::
p76
aV.::
p77
aa(lp78
Vthe::
p79
aVsimplest::
p80
aVexample::
p81
aVis::
p82
aVgunpowder::
p83
aVand::
p84
aVa::
p85
aVfuse::
p86
aV.::
p87
aVthat::
p88
aVis::
p89
aV,::
p90
aVyou::
p91
aVlight::
p92
aVthe::
p93
aVfuse::
p94
aVand::
p95
aVset::
p96
aVoff::
p97
aVthe::
p98
aVgunpowder::
p99
aV.::
p100
aa(lp101
Veach::
p102
aVday::
p103
aV,::
p104
aVthat::
p105
aVpoint::
p106
aVis::
p107
aVgetting::
p108
aVcloser::
p109
aV.::
p110
aVthat::
p111
aV\u2019s::
p112
aVwhy::
p113
aVi::
p114
aVspeak::
p115
aVtoday::
p116
aVwith::
p117
aVsuch::
p118
aVa::
p119
aVsense::
p120
aVof::
p121
aVurgency::
p122
aV.::
p123
aVand::
p124
aVthat::
p125
aV\u2019s::
p126
aVwhy::
p127
aVeveryone::
p128
aVshould::
p129
aVhave::
p130
aVa::
p131
aVsense::
p132
aVof::
p133
aVurgency::
p134
aV.::
p135
aa(lp136
Vwhat::
p137
aVi::
p138
aVhave::
p139
aVsaid::
p140
aVtoday::
p141
aVwill::
p142
aVhelp::
p143
aVensure::
p144
aVthat::
p145
aVthis::
p146
aVcommon::
p147
aVgoal::
p148
aVis::
p149
aVachieved::
p150
aV.::
p151
aa(lp152
Visrael::
p153
aVis::
p154
aVin::
p155
aVdiscussions::
p156
aVwith::
p157
aVthe::
p158
aVunited::
p159
aVstates::
p160
aVover::
p161
aVthis::
p162
aVissue::
p163
aV,::
p164
aVand::
p165
aVi::
p166
aVam::
p167
aVconfident::
p168
aVthat::
p169
aVwe::
p170
aVcan::
p171
aVchart::
p172
aVa::
p173
aVpath::
p174
aVforward::
p175
aVtogether::
p176
aV.::
p177
aa(lp178
Vlet::
p179
aVus::
p180
aVcommit::
p181
aVourselves::
p182
aVtoday::
p183
aVto::
p184
aVdefend::
p185
aVthese::
p186
aVvalues::
p187
aVso::
p188
aVthat::
p189
aVwe::
p190
aVcan::
p191
aVdefend::
p192
aVour::
p193
aVfreedom::
p194
aVand::
p195
aVprotect::
p196
aVour::
p197
aVcommon::
p198
aVcivilization::
p199
aV.::
p200
aa(lp201
Vi::
p202
aVended::
p203
aVthat::
p204
aVfirst::
p205
aVspeech::
p206
aVby::
p207
aVsaying::
p208
aV:::
p209
aVgentlemen::
p210
aV,::
p211
aVcheck::
p212
aVyour::
p213
aVfanaticism::
p214
aVat::
p215
aVthe::
p216
aVdoor::
p217
aV.::
p218
aa(lp219
Vthis::
p220
aVconflict::
p221
aVrages::
p222
aVbecause::
p223
aVfor::
p224
aVthe::
p225
aVpalestinians::
p226
aV,::
p227
aVthe::
p228
aVreal::
p229
aVsettlements::
p230
aVthey::PRON
p231
aV\u2019re::
p232
aVafter::
p233
aVare::
p234
aVhaifa::
p235
aV,::
p236
aVjaffa::
p237
aVand::
p238
aVtel::
p239
aVaviv::
p240
aV.::
p241
aa(lp242
Vhow::
p243
aVcan::
p244
aVany::
p245
aVof::
p246
aVus::
p247
aVexpect::
p248
aVyoung::
p249
aVpalestinians::
p250
aVto::
p251
aVsupport::
p252
aVpeace::
p253
aVwhen::
p254
aVtheir::
p255
aVleaders::
p256
aVpoison::
p257
aVtheir::
p258
aVminds::
p259
aVagainst::
p260
aVpeace::
p261
aV?::
p262
aa(lp263
Vwe::
p264
aVcan::
p265
aVdo::
p266
aVthis::
p267
aV.::
p268
aa(lp269
Vafter::
p270
aV70::
p271
aVyears::
p272
aV,::
p273
aVthe::
p274
aVworld::
p275
aVis::
p276
aVembracing::
p277
aVisrael::
p278
aV,::
p279
aVand::
p280
aVisrael::
p281
aVis::
p282
aVembracing::
p283
aVthe::
p284
aVworld::
p285
aV.::
p286
aasS'chain'
p287
g1
(cmarkovify.chain
Chain
p288
g3
Ntp289
Rp290
(dp291
S'model'
p292
(dp293
(g205
g206
tp294
(dp295
g207
I1
ss(g44
g45
tp296
(dp297
g46
I1
ss(g243
g244
tp298
(dp299
g245
I1
ss(g191
g192
tp300
(dp301
g193
I1
ss(g172
g173
tp302
(dp303
g174
I1
ss(g259
g260
tp304
(dp305
g261
I1
ss(g211
g212
tp306
(dp307
g213
I1
ss(g141
g142
tp308
(dp309
g143
I1
ss(g156
g157
tp310
(dp311
g158
I1
ss(g42
g43
tp312
(dp313
g44
I2
ss(g103
g104
tp314
(dp315
g105
I1
ss(g229
g230
tp316
(dp317
g231
I1
ss(g271
g272
tp318
(dp319
g273
I1
ss(g138
g139
tp320
(dp321
g140
I1
ss(g45
g46
tp322
(dp323
g47
I1
ss(g197
g198
tp324
(dp325
g199
I1
ss(g16
g17
tp326
(dp327
g18
I1
ss(g187
g188
tp328
(dp329
g189
I1
ss(g116
g117
tp330
(dp331
g118
I1
ss(g108
g109
tp332
(dp333
g110
I1
ss(g270
g271
tp334
(dp335
g272
I1
ss(g89
g90
tp336
(dp337
g91
I1
ss(g117
g118
tp338
(dp339
g119
I1
ss(g86
g87
tp340
(dp341
g88
I1
ss(g67
g68
tp342
(dp343
g69
I1
ss(g246
g247
tp344
(dp345
g248
I1
ss(g277
g278
tp346
(dp347
g279
I1
ss(g35
g36
tp348
(dp349
g37
I1
ss(S'___BEGIN__'
p350
g58
tp351
(dp352
g59
I1
ss(g192
g193
tp353
(dp354
g194
I1
ss(g93
g94
tp355
(dp356
g95
I1
ss(g119
g120
tp357
(dp358
g121
I2
ss(g21
g22
tp359
(dp360
g23
I1
ss(g230
g231
tp361
(dp362
g232
I1
ss(g250
g251
tp363
(dp364
g252
I1
ss(g128
g129
tp365
(dp366
g130
I1
ss(g216
g217
tp367
(dp368
g218
I1
ss(g49
g50
tp369
(dp370
g51
I1
ss(g350
g13
tp371
(dp372
g14
I1
ss(g186
g187
tp373
(dp374
g188
I1
ss(g123
g124
tp375
(dp376
g125
I1
ss(g162
g163
tp377
(dp378
g164
I1
ss(g202
g203
tp379
(dp380
g204
I1
ss(g105
g106
tp381
(dp382
g107
I1
ss(g22
g23
tp383
(dp384
g24
I1
ss(g62
g63
tp385
(dp386
g64
I1
ss(g213
g214
tp387
(dp388
g215
I1
ss(g118
g119
tp389
(dp390
g120
I1
ss(g350
g264
tp391
(dp392
g265
I1
ss(g167
g168
tp393
(dp394
g169
I1
ss(g350
g26
tp395
(dp396
g27
I1
ss(g88
g89
tp397
(dp398
g90
I1
ss(g285
g286
tp399
(dp400
S'___END__'
p401
I1
ss(g79
g80
tp402
(dp403
g81
I1
ss(g137
g138
tp404
(dp405
g139
I1
ss(g220
g221
tp406
(dp407
g222
I1
ss(g31
g32
tp408
(dp409
g33
I1
ss(g120
g121
tp410
(dp411
g122
I2
ss(g106
g107
tp412
(dp413
g108
I1
ss(g183
g184
tp414
(dp415
g185
I1
ss(g109
g110
tp416
(dp417
g111
I1
ss(g232
g233
tp418
(dp419
g234
I1
ss(g69
g70
tp420
(dp421
g71
I1
ss(g207
g208
tp422
(dp423
g209
I1
ss(g157
g158
tp424
(dp425
g159
I1
ss(g50
g51
tp426
(dp427
g401
I1
ss(g129
g130
tp428
(dp429
g131
I1
ss(g98
g99
tp430
(dp431
g100
I1
ss(g115
g116
tp432
(dp433
g117
I1
ss(g53
g54
tp434
(dp435
g55
I1
ss(g38
g39
tp436
(dp437
g40
I1
ss(g46
g47
tp438
(dp439
g48
I1
sg167
I1
ss(g54
g55
tp440
(dp441
g56
I1
ss(g235
g236
tp442
(dp443
g237
I1
ss(g166
g167
tp444
(dp445
g168
I1
ss(g61
g62
tp446
(dp447
g63
I1
ss(g223
g224
tp448
(dp449
g225
I1
ss(g155
g156
tp450
(dp451
g157
I1
ss(g170
g171
tp452
(dp453
g192
I1
sg172
I1
sg266
I1
ss(g113
g114
tp454
(dp455
g115
I1
ss(g72
g73
tp456
(dp457
g74
I1
ss(g255
g256
tp458
(dp459
g257
I1
ss(g26
g27
tp460
(dp461
g28
I1
ss(g146
g147
tp462
(dp463
g148
I1
ss(g87
g88
tp464
(dp465
g89
I1
sg112
I1
ss(g350
g79
tp466
(dp467
g80
I1
ss(g260
g261
tp468
(dp469
g262
I1
ss(g254
g255
tp470
(dp471
g256
I1
ss(g84
g85
tp472
(dp473
g86
I1
ss(g107
g108
tp474
(dp475
g109
I1
ss(g204
g205
tp476
(dp477
g206
I1
ss(g253
g254
tp478
(dp479
g255
I1
ss(g208
g209
tp480
(dp481
g210
I1
ss(g174
g175
tp482
(dp483
g176
I1
ss(g224
g225
tp484
(dp485
g226
I1
ss(g150
g151
tp486
(dp487
g401
I1
ss(g210
g211
tp488
(dp489
g212
I1
ss(g23
g24
tp490
(dp491
g401
I1
ss(g70
g71
tp492
(dp493
g72
I1
ss(g214
g215
tp494
(dp495
g216
I1
ss(g265
g266
tp496
(dp497
g267
I1
ss(g272
g273
tp498
(dp499
g274
I1
ss(g350
g53
tp500
(dp501
g54
I1
ss(g97
g98
tp502
(dp503
g99
I1
ss(g276
g277
tp504
(dp505
g278
I1
sg284
I1
ss(g225
g226
tp506
(dp507
g227
I1
ss(g14
g15
tp508
(dp509
g16
I1
sg280
I1
ss(g161
g162
tp510
(dp511
g163
I1
ss(g154
g155
tp512
(dp513
g156
I1
ss(g102
g103
tp514
(dp515
g104
I1
ss(g221
g222
tp516
(dp517
g223
I1
ss(g55
g56
tp518
(dp519
g401
I1
ss(g20
g21
tp520
(dp521
g22
I1
ss(g209
g210
tp522
(dp523
g211
I1
ss(g160
g161
tp524
(dp525
g162
I1
ss(g85
g86
tp526
(dp527
g87
I1
ss(g127
g128
tp528
(dp529
g129
I1
ss(g181
g182
tp530
(dp531
g183
I1
ss(g29
g30
tp532
(dp533
g31
I1
sg36
I1
ss(g238
g239
tp534
(dp535
g240
I1
ss(g274
g275
tp536
(dp537
g276
I1
sg286
I1
ss(g66
g67
tp538
(dp539
g68
I1
ss(g92
g93
tp540
(dp541
g94
I1
ss(g121
g122
tp542
(dp543
g123
I2
ss(g350
g179
tp544
(dp545
g180
I1
ss(g43
g44
tp546
(dp547
g50
I1
sg45
I1
ss(g19
g20
tp548
(dp549
g21
I1
ss(g350
g42
tp550
(dp551
g43
I1
sg203
I1
ss(g257
g258
tp552
(dp553
g259
I1
ss(g203
g204
tp554
(dp555
g205
I1
ss(g28
g29
tp556
(dp557
g30
I1
ss(g196
g197
tp558
(dp559
g198
I1
ss(g15
g16
tp560
(dp561
g229
I1
sg17
I1
sg275
I1
ss(g145
g146
tp562
(dp563
g147
I1
ss(g37
g38
tp564
(dp565
g39
I1
ss(g99
g100
tp566
(dp567
g401
I1
ss(g169
g170
tp568
(dp569
g171
I2
ss(g182
g183
tp570
(dp571
g184
I1
ss(g350
g243
tp572
(dp573
g244
I1
ss(g18
g19
tp574
(dp575
g20
I1
ss(g240
g241
tp576
(dp577
g401
I1
ss(g142
g143
tp578
(dp579
g144
I1
ss(g58
g59
tp580
(dp581
g113
I2
sg60
I1
ss(g188
g189
tp582
(dp583
g190
I1
ss(g251
g252
tp584
(dp585
g253
I1
ss(g193
g194
tp586
(dp587
g195
I1
ss(g30
g31
tp588
(dp589
g32
I1
ss(g60
g61
tp590
(dp591
g62
I1
ss(g139
g140
tp592
(dp593
g141
I1
ss(g180
g181
tp594
(dp595
g182
I1
ss(g245
g246
tp596
(dp597
g247
I1
ss(g36
g37
tp598
(dp599
g38
I1
ss(g68
g69
tp600
(dp601
g70
I1
ss(g217
g218
tp602
(dp603
g401
I1
ss(g64
g65
tp604
(dp605
g66
I1
ss(g350
g270
tp606
(dp607
g271
I1
ss(g215
g216
tp608
(dp609
g217
I1
ss(g149
g150
tp610
(dp611
g151
I1
ss(g350
g220
tp612
(dp613
g221
I1
ss(g83
g84
tp614
(dp615
g85
I1
ss(g96
g97
tp616
(dp617
g98
I1
ss(g82
g83
tp618
(dp619
g84
I1
ss(g233
g234
tp620
(dp621
g235
I1
ss(g81
g82
tp622
(dp623
g83
I1
ss(g140
g141
tp624
(dp625
g142
I1
ss(g275
g276
tp626
(dp627
g277
I1
ss(g226
g227
tp628
(dp629
g228
I1
ss(g144
g145
tp630
(dp631
g146
I1
ss(g168
g169
tp632
(dp633
g170
I1
ss(g94
g95
tp634
(dp635
g96
I1
ss(g63
g64
tp636
(dp637
g65
I1
ss(g163
g164
tp638
(dp639
g165
I1
ss(g195
g196
tp640
(dp641
g197
I1
ss(g13
g14
tp642
(dp643
g15
I1
ss(g71
g72
tp644
(dp645
g73
I1
ss(g143
g144
tp646
(dp647
g145
I1
ss(g32
g33
tp648
(dp649
g34
I1
sg106
I1
ss(g237
g238
tp650
(dp651
g239
I1
ss(g75
g76
tp652
(dp653
g77
I1
ss(g283
g284
tp654
(dp655
g285
I1
ss(g33
g34
tp656
(dp657
g35
I1
ss(g91
g92
tp658
(dp659
g93
I1
ss(g159
g160
tp660
(dp661
g161
I1
ss(g17
g18
tp662
(dp663
g19
I1
ss(g176
g177
tp664
(dp665
g401
I1
ss(g122
g123
tp666
(dp667
g401
I1
sg124
I1
ss(g185
g186
tp668
(dp669
g187
I1
ss(g73
g74
tp670
(dp671
g75
I1
ss(g164
g165
tp672
(dp673
g281
I1
sg166
I1
ss(g27
g28
tp674
(dp675
g29
I1
ss(g171
g172
tp676
(dp677
g173
I1
ss(g158
g159
tp678
(dp679
g160
I1
ss(g147
g148
tp680
(dp681
g149
I1
ss(g261
g262
tp682
(dp683
g401
I1
ss(g153
g154
tp684
(dp685
g155
I1
sg283
I1
ss(g175
g176
tp686
(dp687
g177
I1
ss(g59
g60
tp688
(dp689
g61
I1
ss(g350
g350
tp690
(dp691
g264
I1
sg179
I1
sg137
I1
sg58
I1
sg220
I1
sg79
I1
sg270
I1
sg153
I1
sg13
I1
sg102
I1
sg26
I1
sg42
I2
sg243
I1
sg53
I1
ss(g173
g174
tp692
(dp693
g175
I1
ss(g247
g248
tp694
(dp695
g249
I1
ss(g199
g200
tp696
(dp697
g401
I1
ss(g80
g81
tp698
(dp699
g82
I1
ss(g74
g75
tp700
(dp701
g76
I1
ss(g194
g195
tp702
(dp703
g196
I1
ss(g206
g207
tp704
(dp705
g208
I1
ss(g95
g96
tp706
(dp707
g97
I1
ss(g148
g149
tp708
(dp709
g150
I1
ss(g179
g180
tp710
(dp711
g181
I1
ss(g256
g257
tp712
(dp713
g258
I1
ss(g258
g259
tp714
(dp715
g260
I1
ss(g252
g253
tp716
(dp717
g254
I1
ss(g350
g137
tp718
(dp719
g138
I1
ss(g130
g131
tp720
(dp721
g132
I1
ss(g266
g267
tp722
(dp723
g268
I1
ss(g239
g240
tp724
(dp725
g241
I1
ss(g184
g185
tp726
(dp727
g186
I1
ss(g267
g268
tp728
(dp729
g401
I1
ss(g350
g102
tp730
(dp731
g103
I1
ss(g236
g237
tp732
(dp733
g238
I1
ss(g198
g199
tp734
(dp735
g200
I1
ss(g212
g213
tp736
(dp737
g214
I1
ss(g249
g250
tp738
(dp739
g251
I1
ss(g280
g281
tp740
(dp741
g282
I1
ss(g124
g125
tp742
(dp743
g126
I1
ss(g244
g245
tp744
(dp745
g246
I1
ss(g90
g91
tp746
(dp747
g92
I1
ss(g248
g249
tp748
(dp749
g250
I1
ss(g114
g115
tp750
(dp751
g116
I1
ss(g350
g153
tp752
(dp753
g154
I1
ss(g222
g223
tp754
(dp755
g224
I1
ss(g112
g113
tp756
(dp757
g128
I1
sg114
I1
ss(g65
g66
tp758
(dp759
g67
I1
ss(g228
g229
tp760
(dp761
g230
I1
ss(g39
g40
tp762
(dp763
g401
I2
ss(g231
g232
tp764
(dp765
g233
I1
ss(g234
g235
tp766
(dp767
g236
I1
sssS'begin_choices'
p768
(g264
g179
g137
g58
g220
g79
g270
g153
g13
g102
g26
g42
g243
g53
tp769
sS'begin_cumdist'
p770
(lp771
I1
aI2
aI3
aI4
aI5
aI6
aI7
aI8
aI9
aI10
aI11
aI13
aI14
aI15
asS'state_size'
p772
I2
sbsg772
I2
sbag1
(g2
g3
Ntp773
Rp774
(dp775
g7
I01
sg8
Vyesterday was yom kippur , the holiest day of the jewish year . but at the end of yom kippur , we celebrate . unfortunately , that is not the case in many other countries . for today , a great battle is being waged between the modern and the medieval . these forces clash around the globe , but nowhere more starkly than in the middle east . we \u2019ve seen that happen before . we \u2019ve seen that happen before too . i \u2019ve been speaking about the need to prevent iran from developing nuclear weapons for over 15 years . in the case of iran \u2019s plans to build a nuclear weapon , the gunpowder is enriched uranium . the fuse is a nuclear detonator . for iran , amassing enough enriched uranium is far more difficult than producing the nuclear fuse . so , how much enriched uranium do you need for a bomb ? and how close is iran to getting it ? this is a bomb ; this is a fuse . the first stage  they have to enrich enough of low enriched uranium . the second stage  they have to enrich enough medium enriched uranium . and the third stage and final stage  they have to enrich enough high enriched uranium for the first bomb . from there , it \u2019s only a few months , possibly a few weeks before they get enough enriched uranium for the first bomb . but they are not foolproof . the clash between modernity and medievalism need not be a clash between progress and tradition . we champion these principles not despite of our traditions but because of them . ladies and gentlemen , a year later , north korea exploded its first nuclear weapons device . that \u2019s the central lesson of the 20th century . and we can not forget it . the world may have forgotten this lesson . the jewish people have not . the re - birth of israel is a testament to the indomitable spirit of my people . enough ! the sooner the un \u2019s obsession with israel ends , the better . the better for israel , the better for your countries , the better for the un itself . the sooner the un \u2019s obsession with israel ends , the better . the better for israel , the better for your countries , the better for the un itself . this conflict rages because for the palestinians , the real settlements they \u2019re after are haifa , jaffa and tel aviv . netzach israel lo yeshaker .
p776
sg10
(lp777
(lp778
Vyesterday::
p779
aVwas::
p780
aVyom::
p781
aVkippur::
p782
aV,::
p783
aVthe::
p784
aVholiest::
p785
aVday::
p786
aVof::
p787
aVthe::
p788
aVjewish::
p789
aVyear::
p790
aV.::
p791
aa(lp792
Vbut::
p793
aVat::
p794
aVthe::
p795
aVend::
p796
aVof::
p797
aVyom::
p798
aVkippur::
p799
aV,::
p800
aVwe::
p801
aVcelebrate::
p802
aV.::
p803
aa(lp804
Vunfortunately::
p805
aV,::
p806
aVthat::
p807
aVis::
p808
aVnot::
p809
aVthe::
p810
aVcase::
p811
aVin::
p812
aVmany::
p813
aVother::
p814
aVcountries::
p815
aV.::
p816
aVfor::
p817
aVtoday::
p818
aV,::
p819
aVa::
p820
aVgreat::
p821
aVbattle::
p822
aVis::
p823
aVbeing::
p824
aVwaged::
p825
aVbetween::
p826
aVthe::
p827
aVmodern::
p828
aVand::
p829
aVthe::
p830
aVmedieval::
p831
aV.::
p832
aa(lp833
Vthese::
p834
aVforces::
p835
aVclash::
p836
aVaround::
p837
aVthe::
p838
aVglobe::
p839
aV,::
p840
aVbut::
p841
aVnowhere::
p842
aVmore::
p843
aVstarkly::
p844
aVthan::
p845
aVin::
p846
aVthe::
p847
aVmiddle::
p848
aVeast::
p849
aV.::
p850
aa(lp851
Vwe::PRON
p852
aV\u2019ve::VERB
p853
aVseen::
p854
aVthat::
p855
aVhappen::
p856
aVbefore::
p857
aV.::
p858
aa(lp859
Vwe::PRON
p860
aV\u2019ve::VERB
p861
aVseen::
p862
aVthat::
p863
aVhappen::
p864
aVbefore::
p865
aVtoo::
p866
aV.::
p867
aa(lp868
Vi::PRON
p869
aV\u2019ve::VERB
p870
aVbeen::
p871
aVspeaking::
p872
aVabout::
p873
aVthe::
p874
aVneed::
p875
aVto::
p876
aVprevent::
p877
aViran::
p878
aVfrom::
p879
aVdeveloping::
p880
aVnuclear::
p881
aVweapons::
p882
aVfor::
p883
aVover::
p884
aV15::
p885
aVyears::
p886
aV.::
p887
aa(lp888
Vin::
p889
aVthe::
p890
aVcase::
p891
aVof::
p892
aViran::
p893
aV\u2019s::
p894
aVplans::
p895
aVto::
p896
aVbuild::
p897
aVa::
p898
aVnuclear::
p899
aVweapon::
p900
aV,::
p901
aVthe::
p902
aVgunpowder::
p903
aVis::
p904
aVenriched::
p905
aVuranium::
p906
aV.::
p907
aVthe::
p908
aVfuse::
p909
aVis::
p910
aVa::
p911
aVnuclear::
p912
aVdetonator::
p913
aV.::
p914
aa(lp915
Vfor::
p916
aViran::
p917
aV,::
p918
aVamassing::
p919
aVenough::
p920
aVenriched::
p921
aVuranium::
p922
aVis::
p923
aVfar::
p924
aVmore::
p925
aVdifficult::
p926
aVthan::
p927
aVproducing::
p928
aVthe::
p929
aVnuclear::
p930
aVfuse::
p931
aV.::
p932
aa(lp933
Vso::
p934
aV,::
p935
aVhow::
p936
aVmuch::
p937
aVenriched::
p938
aVuranium::
p939
aVdo::
p940
aVyou::
p941
aVneed::
p942
aVfor::
p943
aVa::
p944
aVbomb::
p945
aV?::
p946
aVand::
p947
aVhow::
p948
aVclose::
p949
aVis::
p950
aViran::
p951
aVto::
p952
aVgetting::
p953
aVit::
p954
aV?::
p955
aa(lp956
Vthis::
p957
aVis::
p958
aVa::
p959
aVbomb::
p960
aV;::
p961
aVthis::
p962
aVis::
p963
aVa::
p964
aVfuse::
p965
aV.::
p966
aa(lp967
Vthe::
p968
aVfirst::
p969
aVstage::
p970
aV:::
p971
aVthey::
p972
aVhave::
p973
aVto::
p974
aVenrich::
p975
aVenough::
p976
aVof::
p977
aVlow::
p978
aVenriched::
p979
aVuranium::
p980
aV.::
p981
aa(lp982
Vthe::
p983
aVsecond::
p984
aVstage::
p985
aV:::
p986
aVthey::
p987
aVhave::
p988
aVto::
p989
aVenrich::
p990
aVenough::
p991
aVmedium::
p992
aVenriched::
p993
aVuranium::
p994
aV.::
p995
aa(lp996
Vand::
p997
aVthe::
p998
aVthird::
p999
aVstage::
p1000
aVand::
p1001
aVfinal::
p1002
aVstage::
p1003
aV:::
p1004
aVthey::
p1005
aVhave::
p1006
aVto::
p1007
aVenrich::
p1008
aVenough::
p1009
aVhigh::
p1010
aVenriched::
p1011
aVuranium::
p1012
aVfor::
p1013
aVthe::
p1014
aVfirst::
p1015
aVbomb::
p1016
aV.::
p1017
aa(lp1018
Vfrom::
p1019
aVthere::
p1020
aV,::
p1021
aVit::PRON
p1022
aV\u2019s::
p1023
aVonly::
p1024
aVa::
p1025
aVfew::
p1026
aVmonths::
p1027
aV,::
p1028
aVpossibly::
p1029
aVa::
p1030
aVfew::
p1031
aVweeks::
p1032
aVbefore::
p1033
aVthey::
p1034
aVget::
p1035
aVenough::
p1036
aVenriched::
p1037
aVuranium::
p1038
aVfor::
p1039
aVthe::
p1040
aVfirst::
p1041
aVbomb::
p1042
aV.::
p1043
aa(lp1044
Vbut::
p1045
aVthey::
p1046
aVare::
p1047
aVnot::
p1048
aVfoolproof::
p1049
aV.::
p1050
aa(lp1051
Vthe::
p1052
aVclash::
p1053
aVbetween::
p1054
aVmodernity::
p1055
aVand::
p1056
aVmedievalism::
p1057
aVneed::
p1058
aVnot::
p1059
aVbe::
p1060
aVa::
p1061
aVclash::
p1062
aVbetween::
p1063
aVprogress::
p1064
aVand::
p1065
aVtradition::
p1066
aV.::
p1067
aa(lp1068
Vwe::
p1069
aVchampion::
p1070
aVthese::
p1071
aVprinciples::
p1072
aVnot::
p1073
aVdespite::
p1074
aVof::
p1075
aVour::
p1076
aVtraditions::
p1077
aVbut::
p1078
aVbecause::
p1079
aVof::
p1080
aVthem::
p1081
aV.::
p1082
aa(lp1083
Vladies::
p1084
aVand::
p1085
aVgentlemen::
p1086
aV,::
p1087
aVa::
p1088
aVyear::
p1089
aVlater::
p1090
aV,::
p1091
aVnorth::
p1092
aVkorea::
p1093
aVexploded::
p1094
aVits::
p1095
aVfirst::
p1096
aVnuclear::
p1097
aVweapons::
p1098
aVdevice::
p1099
aV.::
p1100
aa(lp1101
Vthat::
p1102
aV\u2019s::
p1103
aVthe::
p1104
aVcentral::
p1105
aVlesson::
p1106
aVof::
p1107
aVthe::
p1108
aV20th::
p1109
aVcentury::
p1110
aV.::
p1111
aVand::
p1112
aVwe::
p1113
aVcan::VERB
p1114
aVnot::ADV
p1115
aVforget::
p1116
aVit::
p1117
aV.::
p1118
aVthe::
p1119
aVworld::
p1120
aVmay::
p1121
aVhave::
p1122
aVforgotten::
p1123
aVthis::
p1124
aVlesson::
p1125
aV.::
p1126
aVthe::
p1127
aVjewish::
p1128
aVpeople::
p1129
aVhave::
p1130
aVnot::
p1131
aV.::
p1132
aa(lp1133
Vthe::
p1134
aVre::
p1135
aV-::
p1136
aVbirth::
p1137
aVof::
p1138
aVisrael::
p1139
aVis::
p1140
aVa::
p1141
aVtestament::
p1142
aVto::
p1143
aVthe::
p1144
aVindomitable::
p1145
aVspirit::
p1146
aVof::
p1147
aVmy::
p1148
aVpeople::
p1149
aV.::
p1150
aa(lp1151
Venough::
p1152
aV!::
p1153
aa(lp1154
Vthe::
p1155
aVsooner::
p1156
aVthe::
p1157
aVun::
p1158
aV\u2019s::
p1159
aVobsession::
p1160
aVwith::
p1161
aVisrael::
p1162
aVends::
p1163
aV,::
p1164
aVthe::
p1165
aVbetter::
p1166
aV.::
p1167
aVthe::
p1168
aVbetter::
p1169
aVfor::
p1170
aVisrael::
p1171
aV,::
p1172
aVthe::
p1173
aVbetter::
p1174
aVfor::
p1175
aVyour::
p1176
aVcountries::
p1177
aV,::
p1178
aVthe::
p1179
aVbetter::
p1180
aVfor::
p1181
aVthe::
p1182
aVun::
p1183
aVitself::
p1184
aV.::
p1185
aa(lp1186
Vthe::
p1187
aVsooner::
p1188
aVthe::
p1189
aVun::
p1190
aV\u2019s::
p1191
aVobsession::
p1192
aVwith::
p1193
aVisrael::
p1194
aVends::
p1195
aV,::
p1196
aVthe::
p1197
aVbetter::
p1198
aV.::
p1199
aVthe::
p1200
aVbetter::
p1201
aVfor::
p1202
aVisrael::
p1203
aV,::
p1204
aVthe::
p1205
aVbetter::
p1206
aVfor::
p1207
aVyour::
p1208
aVcountries::
p1209
aV,::
p1210
aVthe::
p1211
aVbetter::
p1212
aVfor::
p1213
aVthe::
p1214
aVun::
p1215
aVitself::
p1216
aV.::
p1217
aa(lp1218
Vthis::
p1219
aVconflict::
p1220
aVrages::
p1221
aVbecause::
p1222
aVfor::
p1223
aVthe::
p1224
aVpalestinians::
p1225
aV,::
p1226
aVthe::
p1227
aVreal::
p1228
aVsettlements::
p1229
aVthey::PRON
p1230
aV\u2019re::
p1231
aVafter::
p1232
aVare::
p1233
aVhaifa::
p1234
aV,::
p1235
aVjaffa::
p1236
aVand::
p1237
aVtel::
p1238
aVaviv::
p1239
aV.::
p1240
aa(lp1241
Vnetzach::
p1242
aVisrael::
p1243
aVlo::
p1244
aVyeshaker::
p1245
aV.::
p1246
aasg287
g1
(g288
g3
Ntp1247
Rp1248
(dp1249
g292
(dp1250
(g1022
g1023
tp1251
(dp1252
g1024
I1
ss(g1047
g1048
tp1253
(dp1254
g1049
I1
ss(g1045
g1046
tp1255
(dp1256
g1047
I1
ss(g1175
g1176
tp1257
(dp1258
g1177
I2
ss(g1158
g1159
tp1259
(dp1260
g1160
I2
ss(g1239
g1240
tp1261
(dp1262
g401
I1
ss(g1231
g1232
tp1263
(dp1264
g1233
I1
ss(g909
g910
tp1265
(dp1266
g911
I1
ss(g855
g856
tp1267
(dp1268
g857
I2
ss(g905
g906
tp1269
(dp1270
g923
I1
sg907
I3
sg1013
I2
sg940
I1
ss(g819
g820
tp1271
(dp1272
g821
I1
sg1089
I1
ss(g972
g973
tp1273
(dp1274
g974
I3
ss(g810
g811
tp1275
(dp1276
g812
I1
sg892
I1
ss(g1016
g1017
tp1277
(dp1278
g401
I2
ss(g350
g916
tp1279
(dp1280
g917
I1
ss(g1142
g1143
tp1281
(dp1282
g1144
I1
ss(g893
g894
tp1283
(dp1284
g895
I1
ss(g1137
g1138
tp1285
(dp1286
g1139
I1
ss(g823
g824
tp1287
(dp1288
g825
I1
ss(g929
g930
tp1289
(dp1290
g931
I1
ss(g801
g802
tp1291
(dp1292
g803
I1
ss(g1125
g1126
tp1293
(dp1294
g1127
I1
ss(g928
g929
tp1295
(dp1296
g930
I1
ss(g1096
g1097
tp1297
(dp1298
g1098
I1
ss(g1242
g1243
tp1299
(dp1300
g1244
I1
ss(g1122
g1123
tp1301
(dp1302
g1124
I1
ss(g927
g928
tp1303
(dp1304
g929
I1
ss(g1025
g1026
tp1305
(dp1306
g1032
I1
sg1027
I1
ss(g1092
g1093
tp1307
(dp1308
g1094
I1
ss(g827
g828
tp1309
(dp1310
g829
I1
ss(g828
g829
tp1311
(dp1312
g830
I1
ss(g1010
g1011
tp1313
(dp1314
g1012
I1
ss(g931
g932
tp1315
(dp1316
g401
I2
ss(g1046
g1047
tp1317
(dp1318
g1048
I1
ss(g926
g927
tp1319
(dp1320
g928
I1
ss(g910
g911
tp1321
(dp1322
g965
I1
sg960
I1
sg912
I1
sg1142
I1
ss(g1024
g1025
tp1323
(dp1324
g1026
I1
ss(g1148
g1149
tp1325
(dp1326
g1150
I1
ss(g1095
g1096
tp1327
(dp1328
g1097
I1
ss(g1162
g1163
tp1329
(dp1330
g1164
I2
ss(g350
g997
tp1331
(dp1332
g998
I1
ss(g882
g883
tp1333
(dp1334
g884
I1
ss(g350
g1102
tp1335
(dp1336
g1103
I1
ss(g1057
g1058
tp1337
(dp1338
g1059
I1
ss(g908
g909
tp1339
(dp1340
g910
I1
ss(g1072
g1073
tp1341
(dp1342
g1074
I1
ss(g983
g984
tp1343
(dp1344
g985
I1
ss(g1136
g1137
tp1345
(dp1346
g1138
I1
ss(g872
g873
tp1347
(dp1348
g874
I1
ss(g838
g839
tp1349
(dp1350
g840
I1
ss(g923
g924
tp1351
(dp1352
g925
I1
ss(g916
g917
tp1353
(dp1354
g918
I1
ss(g1155
g1156
tp1355
(dp1356
g1157
I2
ss(g971
g972
tp1357
(dp1358
g973
I3
ss(g1099
g1100
tp1359
(dp1360
g401
I1
ss(g944
g945
tp1361
(dp1362
g961
I1
sg946
I1
ss(g898
g899
tp1363
(dp1364
g900
I1
sg913
I1
ss(g883
g884
tp1365
(dp1366
g885
I1
ss(g1111
g1112
tp1367
(dp1368
g1113
I1
ss(g1112
g1113
tp1369
(dp1370
g1114
I1
ss(g907
g908
tp1371
(dp1372
g909
I1
sg1128
I1
sg1169
I2
sg1120
I1
ss(g953
g954
tp1373
(dp1374
g955
I1
ss(g913
g914
tp1375
(dp1376
g401
I1
ss(g350
g889
tp1377
(dp1378
g890
I1
ss(g820
g821
tp1379
(dp1380
g822
I1
ss(g869
g870
tp1381
(dp1382
g871
I1
ss(g350
g834
tp1383
(dp1384
g835
I1
ss(g1131
g1132
tp1385
(dp1386
g401
I1
ss(g843
g844
tp1387
(dp1388
g845
I1
ss(g1121
g1122
tp1389
(dp1390
g1123
I1
ss(g807
g808
tp1391
(dp1392
g809
I1
ss(g941
g942
tp1393
(dp1394
g943
I1
ss(g1245
g1246
tp1395
(dp1396
g401
I1
ss(g937
g938
tp1397
(dp1398
g939
I1
ss(g784
g785
tp1399
(dp1400
g786
I1
ss(g1160
g1161
tp1401
(dp1402
g1162
I2
ss(g1219
g1220
tp1403
(dp1404
g1221
I1
ss(g978
g979
tp1405
(dp1406
g980
I1
ss(g1169
g1170
tp1407
(dp1408
g1171
I2
sg1182
I2
sg1176
I2
ss(g856
g857
tp1409
(dp1410
g858
I1
sg866
I1
ss(g895
g896
tp1411
(dp1412
g897
I1
ss(g837
g838
tp1413
(dp1414
g839
I1
ss(g874
g875
tp1415
(dp1416
g876
I1
ss(g879
g880
tp1417
(dp1418
g881
I1
ss(g1076
g1077
tp1419
(dp1420
g1078
I1
ss(g1019
g1020
tp1421
(dp1422
g1021
I1
ss(g1225
g1226
tp1423
(dp1424
g1227
I1
ss(g891
g892
tp1425
(dp1426
g893
I1
ss(g1165
g1166
tp1427
(dp1428
g1170
I6
sg1167
I2
ss(g865
g866
tp1429
(dp1430
g867
I1
ss(g1233
g1234
tp1431
(dp1432
g1235
I1
ss(g842
g843
tp1433
(dp1434
g844
I1
ss(g1229
g1230
tp1435
(dp1436
g1231
I1
ss(g1060
g1061
tp1437
(dp1438
g1062
I1
ss(g1152
g1153
tp1439
(dp1440
g401
I1
ss(g781
g782
tp1441
(dp1442
g783
I2
ss(g790
g791
tp1443
(dp1444
g401
I1
ss(g936
g937
tp1445
(dp1446
g938
I1
ss(g902
g903
tp1447
(dp1448
g904
I1
ss(g1184
g1185
tp1449
(dp1450
g401
I2
ss(g1094
g1095
tp1451
(dp1452
g1096
I1
ss(g350
g1242
tp1453
(dp1454
g1243
I1
ss(g1061
g1062
tp1455
(dp1456
g1063
I1
ss(g1139
g1140
tp1457
(dp1458
g1141
I1
ss(g935
g936
tp1459
(dp1460
g937
I1
ss(g1073
g1074
tp1461
(dp1462
g1075
I1
ss(g873
g874
tp1463
(dp1464
g875
I1
ss(g787
g788
tp1465
(dp1466
g1109
I1
sg789
I1
ss(g788
g789
tp1467
(dp1468
g1129
I1
sg790
I1
ss(g900
g901
tp1469
(dp1470
g902
I1
ss(g880
g881
tp1471
(dp1472
g882
I1
ss(g1102
g1103
tp1473
(dp1474
g1104
I1
ss(g350
g1084
tp1475
(dp1476
g1085
I1
ss(g1147
g1148
tp1477
(dp1478
g1149
I1
ss(g1009
g1010
tp1479
(dp1480
g1011
I1
ss(g830
g831
tp1481
(dp1482
g832
I1
ss(g834
g835
tp1483
(dp1484
g836
I1
ss(g1183
g1184
tp1485
(dp1486
g1185
I2
ss(g1065
g1066
tp1487
(dp1488
g1067
I1
ss(g1105
g1106
tp1489
(dp1490
g1107
I1
ss(g1228
g1229
tp1491
(dp1492
g1230
I1
ss(g1120
g1121
tp1493
(dp1494
g1122
I1
ss(g881
g882
tp1495
(dp1496
g883
I1
sg1099
I1
ss(g1093
g1094
tp1497
(dp1498
g1095
I1
ss(g947
g948
tp1499
(dp1500
g949
I1
ss(g1224
g1225
tp1501
(dp1502
g1226
I1
ss(g1089
g1090
tp1503
(dp1504
g1091
I1
ss(g350
g968
tp1505
(dp1506
g984
I1
sg969
I1
sg1053
I1
sg1156
I2
sg1135
I1
ss(g802
g803
tp1507
(dp1508
g401
I1
ss(g1124
g1125
tp1509
(dp1510
g1126
I1
ss(g1077
g1078
tp1511
(dp1512
g1079
I1
ss(g1235
g1236
tp1513
(dp1514
g1237
I1
ss(g918
g919
tp1515
(dp1516
g920
I1
ss(g1123
g1124
tp1517
(dp1518
g1125
I1
ss(g870
g871
tp1519
(dp1520
g872
I1
ss(g786
g787
tp1521
(dp1522
g788
I1
ss(g1166
g1167
tp1523
(dp1524
g1168
I2
ss(g884
g885
tp1525
(dp1526
g886
I1
ss(g899
g900
tp1527
(dp1528
g901
I1
ss(g800
g801
tp1529
(dp1530
g802
I1
ss(g839
g840
tp1531
(dp1532
g841
I1
ss(g1002
g1003
tp1533
(dp1534
g1004
I1
ss(g1086
g1087
tp1535
(dp1536
g1088
I1
ss(g857
g858
tp1537
(dp1538
g401
I1
ss(g846
g847
tp1539
(dp1540
g891
I1
sg848
I1
ss(g1104
g1105
tp1541
(dp1542
g1106
I1
ss(g1000
g1001
tp1543
(dp1544
g1002
I1
ss(g917
g918
tp1545
(dp1546
g919
I1
ss(g1114
g1115
tp1547
(dp1548
g1116
I1
ss(g871
g872
tp1549
(dp1550
g873
I1
ss(g785
g786
tp1551
(dp1552
g787
I1
ss(g950
g951
tp1553
(dp1554
g952
I1
ss(g809
g810
tp1555
(dp1556
g811
I1
ss(g1156
g1157
tp1557
(dp1558
g1158
I2
ss(g1034
g1035
tp1559
(dp1560
g1036
I1
ss(g1091
g1092
tp1561
(dp1562
g1093
I1
ss(g1103
g1104
tp1563
(dp1564
g1105
I1
ss(g1109
g1110
tp1565
(dp1566
g1111
I1
ss(g1171
g1172
tp1567
(dp1568
g1173
I2
ss(g897
g898
tp1569
(dp1570
g899
I1
ss(g942
g943
tp1571
(dp1572
g944
I1
ss(g1029
g1030
tp1573
(dp1574
g1031
I1
ss(g1230
g1231
tp1575
(dp1576
g1232
I1
ss(g924
g925
tp1577
(dp1578
g926
I1
ss(g350
g869
tp1579
(dp1580
g870
I1
ss(g1075
g1076
tp1581
(dp1582
g1077
I1
ss(g1220
g1221
tp1583
(dp1584
g1222
I1
ss(g949
g950
tp1585
(dp1586
g951
I1
ss(g964
g965
tp1587
(dp1588
g966
I1
ss(g939
g940
tp1589
(dp1590
g941
I1
ss(g350
g1019
tp1591
(dp1592
g1020
I1
ss(g816
g817
tp1593
(dp1594
g818
I1
ss(g1237
g1238
tp1595
(dp1596
g1239
I1
ss(g968
g969
tp1597
(dp1598
g970
I1
sg1016
I2
ss(g1028
g1029
tp1599
(dp1600
g1030
I1
ss(g906
g907
tp1601
(dp1602
g401
I2
sg908
I1
ss(g1177
g1178
tp1603
(dp1604
g1179
I2
ss(g796
g797
tp1605
(dp1606
g798
I1
ss(g961
g962
tp1607
(dp1608
g963
I1
ss(g853
g854
tp1609
(dp1610
g855
I2
ss(g812
g813
tp1611
(dp1612
g814
I1
ss(g1144
g1145
tp1613
(dp1614
g1146
I1
ss(g350
g934
tp1615
(dp1616
g935
I1
ss(g1035
g1036
tp1617
(dp1618
g1037
I1
ss(g350
g793
tp1619
(dp1620
g1046
I1
sg794
I1
ss(g844
g845
tp1621
(dp1622
g846
I1
ss(g894
g895
tp1623
(dp1624
g896
I1
ss(g1052
g1053
tp1625
(dp1626
g1054
I1
ss(g912
g913
tp1627
(dp1628
g914
I1
ss(g1070
g1071
tp1629
(dp1630
g1072
I1
ss(g878
g879
tp1631
(dp1632
g880
I1
ss(g1143
g1144
tp1633
(dp1634
g1145
I1
ss(g922
g923
tp1635
(dp1636
g924
I1
ss(g999
g1000
tp1637
(dp1638
g1001
I1
ss(g1119
g1120
tp1639
(dp1640
g1121
I1
ss(g836
g837
tp1641
(dp1642
g838
I1
ss(g831
g832
tp1643
(dp1644
g401
I1
ss(g1048
g1049
tp1645
(dp1646
g1050
I1
ss(g808
g809
tp1647
(dp1648
g810
I1
ss(g783
g784
tp1649
(dp1650
g1166
I6
sg1228
I1
sg903
I1
sg785
I1
ss(g945
g946
tp1651
(dp1652
g947
I1
ss(g350
g1069
tp1653
(dp1654
g1070
I1
ss(g1012
g1013
tp1655
(dp1656
g1014
I2
ss(g1113
g1114
tp1657
(dp1658
g1115
I1
ss(g876
g877
tp1659
(dp1660
g878
I1
ss(g1090
g1091
tp1661
(dp1662
g1092
I1
ss(g1115
g1116
tp1663
(dp1664
g1117
I1
ss(g943
g944
tp1665
(dp1666
g945
I1
ss(g1227
g1228
tp1667
(dp1668
g1229
I1
ss(g969
g970
tp1669
(dp1670
g971
I1
ss(g1159
g1160
tp1671
(dp1672
g1161
I2
ss(g919
g920
tp1673
(dp1674
g921
I1
ss(g1085
g1086
tp1675
(dp1676
g1087
I1
ss(g829
g830
tp1677
(dp1678
g999
I1
sg831
I1
ss(g877
g878
tp1679
(dp1680
g879
I1
ss(g984
g985
tp1681
(dp1682
g986
I1
ss(g350
g779
tp1683
(dp1684
g780
I1
ss(g1058
g1059
tp1685
(dp1686
g1060
I1
ss(g930
g931
tp1687
(dp1688
g932
I1
ss(g1128
g1129
tp1689
(dp1690
g1130
I1
ss(g1130
g1131
tp1691
(dp1692
g1132
I1
ss(g974
g975
tp1693
(dp1694
g976
I3
ss(g1033
g1034
tp1695
(dp1696
g1035
I1
ss(g825
g826
tp1697
(dp1698
g827
I1
ss(g840
g841
tp1699
(dp1700
g842
I1
ss(g795
g796
tp1701
(dp1702
g797
I1
ss(g1081
g1082
tp1703
(dp1704
g401
I1
ss(g350
g852
tp1705
(dp1706
g853
I2
ss(g805
g806
tp1707
(dp1708
g807
I1
ss(g1015
g1016
tp1709
(dp1710
g1017
I2
ss(g1053
g1054
tp1711
(dp1712
g1055
I1
sg1064
I1
ss(g350
g957
tp1713
(dp1714
g958
I1
sg1220
I1
ss(g1049
g1050
tp1715
(dp1716
g401
I1
ss(g1084
g1085
tp1717
(dp1718
g1086
I1
ss(g852
g853
tp1719
(dp1720
g854
I2
ss(g1110
g1111
tp1721
(dp1722
g1112
I1
ss(g350
g1152
tp1723
(dp1724
g1153
I1
ss(g1021
g1022
tp1725
(dp1726
g1023
I1
ss(g1032
g1033
tp1727
(dp1728
g1034
I1
ss(g1129
g1130
tp1729
(dp1730
g1131
I1
ss(g1074
g1075
tp1731
(dp1732
g1076
I1
ss(g992
g993
tp1733
(dp1734
g994
I1
ss(g1106
g1107
tp1735
(dp1736
g1108
I1
ss(g1001
g1002
tp1737
(dp1738
g1003
I1
ss(g1145
g1146
tp1739
(dp1740
g1147
I1
ss(g780
g781
tp1741
(dp1742
g782
I1
ss(g973
g974
tp1743
(dp1744
g975
I3
ss(g854
g855
tp1745
(dp1746
g856
I2
ss(g925
g926
tp1747
(dp1748
g927
I1
ss(g885
g886
tp1749
(dp1750
g887
I1
ss(g1063
g1064
tp1751
(dp1752
g1065
I1
ss(g1056
g1057
tp1753
(dp1754
g1058
I1
ss(g1244
g1245
tp1755
(dp1756
g1246
I1
ss(g806
g807
tp1757
(dp1758
g808
I1
ss(g1026
g1027
tp1759
(dp1760
g1028
I1
ss(g1236
g1237
tp1761
(dp1762
g1238
I1
ss(g1069
g1070
tp1763
(dp1764
g1071
I1
ss(g886
g887
tp1765
(dp1766
g401
I1
ss(g1170
g1171
tp1767
(dp1768
g1172
I2
ss(g822
g823
tp1769
(dp1770
g824
I1
ss(g789
g790
tp1771
(dp1772
g791
I1
ss(g1134
g1135
tp1773
(dp1774
g1136
I1
ss(g1221
g1222
tp1775
(dp1776
g1223
I1
ss(g1108
g1109
tp1777
(dp1778
g1110
I1
ss(g896
g897
tp1779
(dp1780
g898
I1
ss(g1135
g1136
tp1781
(dp1782
g1137
I1
ss(g835
g836
tp1783
(dp1784
g837
I1
ss(g1071
g1072
tp1785
(dp1786
g1073
I1
ss(g957
g958
tp1787
(dp1788
g959
I2
ss(g1176
g1177
tp1789
(dp1790
g1178
I2
ss(g848
g849
tp1791
(dp1792
g850
I1
ss(g977
g978
tp1793
(dp1794
g979
I1
ss(g779
g780
tp1795
(dp1796
g781
I1
ss(g350
g805
tp1797
(dp1798
g806
I1
ss(g845
g846
tp1799
(dp1800
g847
I1
ss(g951
g952
tp1801
(dp1802
g953
I1
ss(g826
g827
tp1803
(dp1804
g828
I1
ss(g1013
g1014
tp1805
(dp1806
g1015
I2
sg1183
I2
sg1225
I1
ss(g875
g876
tp1807
(dp1808
g877
I1
ss(g920
g921
tp1809
(dp1810
g922
I2
ss(g976
g977
tp1811
(dp1812
g978
I1
ss(g797
g798
tp1813
(dp1814
g799
I1
ss(g814
g815
tp1815
(dp1816
g816
I1
ss(g350
g350
tp1817
(dp1818
g916
I1
sg852
I2
sg805
I1
sg957
I2
sg793
I2
sg834
I1
sg968
I6
sg1084
I1
sg997
I1
sg1069
I1
sg889
I1
sg1019
I1
sg779
I1
sg1242
I1
sg934
I1
sg869
I1
sg1152
I1
sg1102
I1
ss(g946
g947
tp1819
(dp1820
g948
I1
ss(g866
g867
tp1821
(dp1822
g401
I1
ss(g1232
g1233
tp1823
(dp1824
g1234
I1
ss(g998
g999
tp1825
(dp1826
g1000
I1
ss(g892
g893
tp1827
(dp1828
g894
I1
ss(g1161
g1162
tp1829
(dp1830
g1163
I2
ss(g1031
g1032
tp1831
(dp1832
g1033
I1
ss(g1117
g1118
tp1833
(dp1834
g1119
I1
ss(g1027
g1028
tp1835
(dp1836
g1029
I1
ss(g821
g822
tp1837
(dp1838
g823
I1
ss(g1141
g1142
tp1839
(dp1840
g1143
I1
ss(g948
g949
tp1841
(dp1842
g950
I1
ss(g793
g794
tp1843
(dp1844
g795
I1
ss(g1098
g1099
tp1845
(dp1846
g1100
I1
ss(g1243
g1244
tp1847
(dp1848
g1245
I1
ss(g1020
g1021
tp1849
(dp1850
g1022
I1
ss(g960
g961
tp1851
(dp1852
g962
I1
ss(g1055
g1056
tp1853
(dp1854
g1057
I1
ss(g1238
g1239
tp1855
(dp1856
g1240
I1
ss(g991
g992
tp1857
(dp1858
g993
I1
ss(g904
g905
tp1859
(dp1860
g906
I1
ss(g818
g819
tp1861
(dp1862
g820
I1
ss(g1023
g1024
tp1863
(dp1864
g1025
I1
ss(g1157
g1158
tp1865
(dp1866
g1159
I2
sg1184
I2
ss(g1080
g1081
tp1867
(dp1868
g1082
I1
ss(g1066
g1067
tp1869
(dp1870
g401
I1
ss(g824
g825
tp1871
(dp1872
g826
I1
ss(g1054
g1055
tp1873
(dp1874
g1056
I1
ss(g782
g783
tp1875
(dp1876
g801
I1
sg784
I1
ss(g1088
g1089
tp1877
(dp1878
g1090
I1
ss(g903
g904
tp1879
(dp1880
g905
I1
ss(g1064
g1065
tp1881
(dp1882
g1066
I1
ss(g817
g818
tp1883
(dp1884
g819
I1
ss(g934
g935
tp1885
(dp1886
g936
I1
ss(g847
g848
tp1887
(dp1888
g849
I1
ss(g1234
g1235
tp1889
(dp1890
g1236
I1
ss(g794
g795
tp1891
(dp1892
g796
I1
ss(g841
g842
tp1893
(dp1894
g843
I1
ss(g970
g971
tp1895
(dp1896
g972
I3
ss(g940
g941
tp1897
(dp1898
g942
I1
ss(g1059
g1060
tp1899
(dp1900
g1061
I1
ss(g952
g953
tp1901
(dp1902
g954
I1
ss(g954
g955
tp1903
(dp1904
g401
I1
ss(g849
g850
tp1905
(dp1906
g401
I1
ss(g1079
g1080
tp1907
(dp1908
g1081
I1
ss(g1146
g1147
tp1909
(dp1910
g1148
I1
ss(g811
g812
tp1911
(dp1912
g813
I1
ss(g1116
g1117
tp1913
(dp1914
g1118
I1
ss(g1163
g1164
tp1915
(dp1916
g1165
I2
ss(g813
g814
tp1917
(dp1918
g815
I1
ss(g1078
g1079
tp1919
(dp1920
g1080
I1
ss(g975
g976
tp1921
(dp1922
g992
I1
sg1010
I1
sg977
I1
ss(g1149
g1150
tp1923
(dp1924
g401
I1
ss(g1138
g1139
tp1925
(dp1926
g1140
I1
ss(g1222
g1223
tp1927
(dp1928
g1224
I1
ss(g815
g816
tp1929
(dp1930
g817
I1
sssg768
(g916
g852
g805
g957
g793
g834
g968
g1084
g997
g1069
g889
g1019
g779
g1242
g934
g869
g1152
g1102
tp1931
sg770
(lp1932
I1
aI3
aI4
aI6
aI8
aI9
aI15
aI16
aI17
aI18
aI19
aI20
aI21
aI22
aI23
aI24
aI25
aI26
asg772
I2
sbsg772
I2
sbag1
(g2
g3
Ntp1933
Rp1934
(dp1935
g7
I01
sg8
Vladies and gentlemen , the people of israel live on . we say in hebrew am yisrael chai , and the jewish state will live forever . we will never be uprooted again . in israel , the past and the future find common ground . ladies and gentlemen , basically , any bomb consists of explosive material and a mechanism to ignite it . in contrast , iran could produce the nuclear detonator \u2013 the fuse \u2013 in a lot less time , maybe under a year , maybe only a few months . ladies and gentlemen , ladies and gentlemen , ladies and gentlemen , ladies and gentlemen , the people of israel have come home never to be uprooted again . ladies and gentlemen , ladies and gentlemen , ladies and gentlemen , ladies and gentlemen , ladies and gentlemen , ladies and gentlemen , ladies and gentlemen , ladies and gentlemen , ladies and gentlemen , ladies and gentlemen , ladies and gentlemen , ladies and gentlemen , ladies and gentlemen , ladies and gentlemen , ladies and gentlemen , ladies and gentlemen , ladies and gentlemen ,
p1936
sg10
(lp1937
(lp1938
Vladies::
p1939
aVand::
p1940
aVgentlemen::
p1941
aV,::
p1942
aa(lp1943
Vthe::
p1944
aVpeople::
p1945
aVof::
p1946
aVisrael::
p1947
aVlive::
p1948
aVon::
p1949
aV.::
p1950
aVwe::
p1951
aVsay::
p1952
aVin::
p1953
aVhebrew::
p1954
aVam::
p1955
aVyisrael::
p1956
aVchai::
p1957
aV,::
p1958
aVand::
p1959
aVthe::
p1960
aVjewish::
p1961
aVstate::
p1962
aVwill::
p1963
aVlive::
p1964
aVforever::
p1965
aV.::
p1966
aa(lp1967
Vwe::
p1968
aVwill::
p1969
aVnever::
p1970
aVbe::
p1971
aVuprooted::
p1972
aVagain::
p1973
aV.::
p1974
aa(lp1975
Vin::
p1976
aVisrael::
p1977
aV,::
p1978
aVthe::
p1979
aVpast::
p1980
aVand::
p1981
aVthe::
p1982
aVfuture::
p1983
aVfind::
p1984
aVcommon::
p1985
aVground::
p1986
aV.::
p1987
aa(lp1988
Vladies::
p1989
aVand::
p1990
aVgentlemen::
p1991
aV,::
p1992
aa(lp1993
Vbasically::
p1994
aV,::
p1995
aVany::
p1996
aVbomb::
p1997
aVconsists::
p1998
aVof::
p1999
aVexplosive::
p2000
aVmaterial::
p2001
aVand::
p2002
aVa::
p2003
aVmechanism::
p2004
aVto::
p2005
aVignite::
p2006
aVit::
p2007
aV.::
p2008
aa(lp2009
Vin::
p2010
aVcontrast::
p2011
aV,::
p2012
aViran::
p2013
aVcould::
p2014
aVproduce::
p2015
aVthe::
p2016
aVnuclear::
p2017
aVdetonator::
p2018
aV\u2013::
p2019
aVthe::
p2020
aVfuse::
p2021
aV\u2013::
p2022
aVin::
p2023
aVa::
p2024
aVlot::
p2025
aVless::
p2026
aVtime::
p2027
aV,::
p2028
aVmaybe::
p2029
aVunder::
p2030
aVa::
p2031
aVyear::
p2032
aV,::
p2033
aVmaybe::
p2034
aVonly::
p2035
aVa::
p2036
aVfew::
p2037
aVmonths::
p2038
aV.::
p2039
aa(lp2040
Vladies::
p2041
aVand::
p2042
aVgentlemen::
p2043
aV,::
p2044
aa(lp2045
Vladies::
p2046
aVand::
p2047
aVgentlemen::
p2048
aV,::
p2049
aa(lp2050
Vladies::
p2051
aVand::
p2052
aVgentlemen::
p2053
aV,::
p2054
aa(lp2055
Vladies::
p2056
aVand::
p2057
aVgentlemen::
p2058
aV,::
p2059
aVthe::
p2060
aVpeople::
p2061
aVof::
p2062
aVisrael::
p2063
aVhave::
p2064
aVcome::
p2065
aVhome::
p2066
aVnever::
p2067
aVto::
p2068
aVbe::
p2069
aVuprooted::
p2070
aVagain::
p2071
aV.::
p2072
aa(lp2073
Vladies::
p2074
aVand::
p2075
aVgentlemen::
p2076
aV,::
p2077
aa(lp2078
Vladies::
p2079
aVand::
p2080
aVgentlemen::
p2081
aV,::
p2082
aa(lp2083
Vladies::
p2084
aVand::
p2085
aVgentlemen::
p2086
aV,::
p2087
aa(lp2088
Vladies::
p2089
aVand::
p2090
aVgentlemen::
p2091
aV,::
p2092
aa(lp2093
Vladies::
p2094
aVand::
p2095
aVgentlemen::
p2096
aV,::
p2097
aa(lp2098
Vladies::
p2099
aVand::
p2100
aVgentlemen::
p2101
aV,::
p2102
aa(lp2103
Vladies::
p2104
aVand::
p2105
aVgentlemen::
p2106
aV,::
p2107
aa(lp2108
Vladies::
p2109
aVand::
p2110
aVgentlemen::
p2111
aV,::
p2112
aa(lp2113
Vladies::
p2114
aVand::
p2115
aVgentlemen::
p2116
aV,::
p2117
aa(lp2118
Vladies::
p2119
aVand::
p2120
aVgentlemen::
p2121
aV,::
p2122
aa(lp2123
Vladies::
p2124
aVand::
p2125
aVgentlemen::
p2126
aV,::
p2127
aa(lp2128
Vladies::
p2129
aVand::
p2130
aVgentlemen::
p2131
aV,::
p2132
aa(lp2133
Vladies::
p2134
aVand::
p2135
aVgentlemen::
p2136
aV,::
p2137
aa(lp2138
Vladies::
p2139
aVand::
p2140
aVgentlemen::
p2141
aV,::
p2142
aa(lp2143
Vladies::
p2144
aVand::
p2145
aVgentlemen::
p2146
aV,::
p2147
aa(lp2148
Vladies::
p2149
aVand::
p2150
aVgentlemen::
p2151
aV,::
p2152
aa(lp2153
Vladies::
p2154
aVand::
p2155
aVgentlemen::
p2156
aV,::
p2157
aasg287
g1
(g288
g3
Ntp2158
Rp2159
(dp2160
g292
(dp2161
(g2014
g2015
tp2162
(dp2163
g2016
I1
ss(g2016
g2017
tp2164
(dp2165
g2018
I1
ss(g2038
g2039
tp2166
(dp2167
g401
I1
ss(g1979
g1980
tp2168
(dp2169
g1981
I1
ss(g2036
g2037
tp2170
(dp2171
g2038
I1
ss(g1950
g1951
tp2172
(dp2173
g1952
I1
ss(g350
g1994
tp2174
(dp2175
g1995
I1
ss(g2035
g2036
tp2176
(dp2177
g2037
I1
ss(g2068
g2069
tp2178
(dp2179
g2070
I1
ss(g2019
g2020
tp2180
(dp2181
g2021
I1
ss(g2020
g2021
tp2182
(dp2183
g2022
I1
ss(g1955
g1956
tp2184
(dp2185
g1957
I1
ss(g2005
g2006
tp2186
(dp2187
g2007
I1
ss(g1968
g1969
tp2188
(dp2189
g1970
I1
ss(g2023
g2024
tp2190
(dp2191
g2025
I1
ss(g1984
g1985
tp2192
(dp2193
g1986
I1
ss(g1985
g1986
tp2194
(dp2195
g1987
I1
ss(g350
g1976
tp2196
(dp2197
g1977
I1
sg2011
I1
ss(g350
g1968
tp2198
(dp2199
g1969
I1
ss(g1962
g1963
tp2200
(dp2201
g1964
I1
ss(g2066
g2067
tp2202
(dp2203
g2068
I1
ss(g1945
g1946
tp2204
(dp2205
g1947
I2
ss(g1963
g1964
tp2206
(dp2207
g1965
I1
ss(g2034
g2035
tp2208
(dp2209
g2036
I1
ss(g2000
g2001
tp2210
(dp2211
g2002
I1
ss(g1999
g2000
tp2212
(dp2213
g2001
I1
ss(g2001
g2002
tp2214
(dp2215
g2003
I1
ss(g2064
g2065
tp2216
(dp2217
g2066
I1
ss(g1960
g1961
tp2218
(dp2219
g1962
I1
ss(g1996
g1997
tp2220
(dp2221
g1998
I1
ss(g350
g1939
tp2222
(dp2223
g1940
I23
ss(g1952
g1953
tp2224
(dp2225
g1954
I1
ss(g1956
g1957
tp2226
(dp2227
g1958
I1
ss(g350
g1944
tp2228
(dp2229
g1945
I1
ss(g2003
g2004
tp2230
(dp2231
g2005
I1
ss(g2002
g2003
tp2232
(dp2233
g2004
I1
ss(g2013
g2014
tp2234
(dp2235
g2015
I1
ss(g1997
g1998
tp2236
(dp2237
g1999
I1
ss(g1941
g1942
tp2238
(dp2239
g401
I22
sg2060
I1
ss(g1986
g1987
tp2240
(dp2241
g401
I1
ss(g2028
g2029
tp2242
(dp2243
g2030
I1
sg2035
I1
ss(g2022
g2023
tp2244
(dp2245
g2024
I1
ss(g1954
g1955
tp2246
(dp2247
g1956
I1
ss(g1977
g1978
tp2248
(dp2249
g1979
I1
ss(g1948
g1949
tp2250
(dp2251
g1950
I1
ss(g2065
g2066
tp2252
(dp2253
g2067
I1
ss(g1983
g1984
tp2254
(dp2255
g1985
I1
ss(g1964
g1965
tp2256
(dp2257
g1966
I1
ss(g2025
g2026
tp2258
(dp2259
g2027
I1
ss(g2015
g2016
tp2260
(dp2261
g2017
I1
ss(g2032
g2033
tp2262
(dp2263
g2034
I1
ss(g2017
g2018
tp2264
(dp2265
g2019
I1
ss(g2037
g2038
tp2266
(dp2267
g2039
I1
ss(g1982
g1983
tp2268
(dp2269
g1984
I1
ss(g1994
g1995
tp2270
(dp2271
g1996
I1
ss(g1972
g1973
tp2272
(dp2273
g1974
I2
ss(g1978
g1979
tp2274
(dp2275
g2061
I1
sg1980
I1
ss(g2029
g2030
tp2276
(dp2277
g2031
I1
ss(g1940
g1941
tp2278
(dp2279
g1942
I23
ss(g1959
g1960
tp2280
(dp2281
g1961
I1
sg1983
I1
ss(g1957
g1958
tp2282
(dp2283
g1959
I1
ss(g2030
g2031
tp2284
(dp2285
g2032
I1
ss(g2012
g2013
tp2286
(dp2287
g2014
I1
ss(g2024
g2025
tp2288
(dp2289
g2026
I1
ss(g1971
g1972
tp2290
(dp2291
g1973
I2
ss(g1947
g1948
tp2292
(dp2293
g1949
I1
ss(g2007
g2008
tp2294
(dp2295
g401
I1
ss(g1939
g1940
tp2296
(dp2297
g1941
I23
ss(g1951
g1952
tp2298
(dp2299
g1953
I1
ss(g2026
g2027
tp2300
(dp2301
g2028
I1
ss(g1976
g1977
tp2302
(dp2303
g1978
I1
ss(g1949
g1950
tp2304
(dp2305
g1951
I1
ss(g2021
g2022
tp2306
(dp2307
g2023
I1
ss(g1944
g1945
tp2308
(dp2309
g1946
I2
ss(g1980
g1981
tp2310
(dp2311
g1982
I1
ss(g1958
g1959
tp2312
(dp2313
g1960
I1
ss(g1953
g1954
tp2314
(dp2315
g1955
I1
ss(g2004
g2005
tp2316
(dp2317
g2006
I1
ss(g350
g350
tp2318
(dp2319
g1939
I23
sg1968
I1
sg1994
I1
sg1944
I1
sg1976
I2
ss(g1995
g1996
tp2320
(dp2321
g1997
I1
ss(g2010
g2011
tp2322
(dp2323
g2012
I1
ss(g1998
g1999
tp2324
(dp2325
g2000
I1
ss(g1965
g1966
tp2326
(dp2327
g401
I1
ss(g1973
g1974
tp2328
(dp2329
g401
I2
ss(g1969
g1970
tp2330
(dp2331
g1971
I1
ss(g2011
g2012
tp2332
(dp2333
g2013
I1
ss(g1970
g1971
tp2334
(dp2335
g1972
I1
ss(g2006
g2007
tp2336
(dp2337
g2008
I1
ss(g2031
g2032
tp2338
(dp2339
g2033
I1
ss(g2063
g2064
tp2340
(dp2341
g2065
I1
ss(g2067
g2068
tp2342
(dp2343
g2069
I1
ss(g1961
g1962
tp2344
(dp2345
g1963
I1
ss(g2018
g2019
tp2346
(dp2347
g2020
I1
ss(g2027
g2028
tp2348
(dp2349
g2029
I1
ss(g1946
g1947
tp2350
(dp2351
g2064
I1
sg1948
I1
sssg768
(g1939
g1968
g1994
g1944
g1976
tp2352
sg770
(lp2353
I23
aI24
aI25
aI26
aI28
asg772
I2
sbsg772
I2
sbag1
(g2
g3
Ntp2354
Rp2355
(dp2356
g7
I01
sg8
Vthroughout our history , the jewish people have overcome all the tyrants who have sought our destruction . it \u2019s their ideologies that have been discarded by history . the people of israel live on . we say in hebrew am yisrael chai , and the jewish state will live forever . yesterday was yom kippur , the holiest day of the jewish year . i know you \u2019re not going to hear that from speakers around this podium , but that \u2019s the truth . it \u2019s important that you are aware of this truth . president abbas just spoke here . the traditions of the jewish people go back thousands of years . they are the source of our collective values and the foundation of our national strength . these are the timeless values of my people and these are the jewish people \u2019s greatest gift to mankind . and we re - established our sovereign state in our ancestral homeland , the land of israel . yet the jewish people persevered . and now another regime has arisen , swearing to destroy israel . this is the true face of israel . these are the values of israel . israel \u2013 twenty ; rest of the world \u2013 three . distinguished delegates from so many lands ,
p2357
sg10
(lp2358
(lp2359
Vthroughout::
p2360
aVour::
p2361
aVhistory::
p2362
aV,::
p2363
aVthe::
p2364
aVjewish::
p2365
aVpeople::
p2366
aVhave::
p2367
aVovercome::
p2368
aVall::
p2369
aVthe::
p2370
aVtyrants::
p2371
aVwho::
p2372
aVhave::
p2373
aVsought::
p2374
aVour::
p2375
aVdestruction::
p2376
aV.::
p2377
aVit::PRON
p2378
aV\u2019s::
p2379
aVtheir::
p2380
aVideologies::
p2381
aVthat::
p2382
aVhave::
p2383
aVbeen::
p2384
aVdiscarded::
p2385
aVby::
p2386
aVhistory::
p2387
aV.::
p2388
aa(lp2389
Vthe::
p2390
aVpeople::
p2391
aVof::
p2392
aVisrael::
p2393
aVlive::
p2394
aVon::
p2395
aV.::
p2396
aVwe::
p2397
aVsay::
p2398
aVin::
p2399
aVhebrew::
p2400
aVam::
p2401
aVyisrael::
p2402
aVchai::
p2403
aV,::
p2404
aVand::
p2405
aVthe::
p2406
aVjewish::
p2407
aVstate::
p2408
aVwill::
p2409
aVlive::
p2410
aVforever::
p2411
aV.::
p2412
aa(lp2413
Vyesterday::
p2414
aVwas::
p2415
aVyom::
p2416
aVkippur::
p2417
aV,::
p2418
aVthe::
p2419
aVholiest::
p2420
aVday::
p2421
aVof::
p2422
aVthe::
p2423
aVjewish::
p2424
aVyear::
p2425
aV.::
p2426
aa(lp2427
Vi::
p2428
aVknow::
p2429
aVyou::PRON
p2430
aV\u2019re::
p2431
aVnot::
p2432
aVgoing::
p2433
aVto::
p2434
aVhear::
p2435
aVthat::
p2436
aVfrom::
p2437
aVspeakers::
p2438
aVaround::
p2439
aVthis::
p2440
aVpodium::
p2441
aV,::
p2442
aVbut::
p2443
aVthat::
p2444
aV\u2019s::
p2445
aVthe::
p2446
aVtruth::
p2447
aV.::
p2448
aVit::PRON
p2449
aV\u2019s::
p2450
aVimportant::
p2451
aVthat::
p2452
aVyou::
p2453
aVare::
p2454
aVaware::
p2455
aVof::
p2456
aVthis::
p2457
aVtruth::
p2458
aV.::
p2459
aa(lp2460
Vpresident::
p2461
aVabbas::
p2462
aVjust::
p2463
aVspoke::
p2464
aVhere::
p2465
aV.::
p2466
aa(lp2467
Vthe::
p2468
aVtraditions::
p2469
aVof::
p2470
aVthe::
p2471
aVjewish::
p2472
aVpeople::
p2473
aVgo::
p2474
aVback::
p2475
aVthousands::
p2476
aVof::
p2477
aVyears::
p2478
aV.::
p2479
aVthey::
p2480
aVare::
p2481
aVthe::
p2482
aVsource::
p2483
aVof::
p2484
aVour::
p2485
aVcollective::
p2486
aVvalues::
p2487
aVand::
p2488
aVthe::
p2489
aVfoundation::
p2490
aVof::
p2491
aVour::
p2492
aVnational::
p2493
aVstrength::
p2494
aV.::
p2495
aa(lp2496
Vthese::
p2497
aVare::
p2498
aVthe::
p2499
aVtimeless::
p2500
aVvalues::
p2501
aVof::
p2502
aVmy::
p2503
aVpeople::
p2504
aVand::
p2505
aVthese::
p2506
aVare::
p2507
aVthe::
p2508
aVjewish::
p2509
aVpeople::
p2510
aV\u2019s::
p2511
aVgreatest::
p2512
aVgift::
p2513
aVto::
p2514
aVmankind::
p2515
aV.::
p2516
aa(lp2517
Vand::
p2518
aVwe::
p2519
aVre::
p2520
aV-::
p2521
aVestablished::
p2522
aVour::
p2523
aVsovereign::
p2524
aVstate::
p2525
aVin::
p2526
aVour::
p2527
aVancestral::
p2528
aVhomeland::
p2529
aV,::
p2530
aVthe::
p2531
aVland::
p2532
aVof::
p2533
aVisrael::
p2534
aV.::
p2535
aa(lp2536
Vyet::
p2537
aVthe::
p2538
aVjewish::
p2539
aVpeople::
p2540
aVpersevered::
p2541
aV.::
p2542
aa(lp2543
Vand::
p2544
aVnow::
p2545
aVanother::
p2546
aVregime::
p2547
aVhas::
p2548
aVarisen::
p2549
aV,::
p2550
aVswearing::
p2551
aVto::
p2552
aVdestroy::
p2553
aVisrael::
p2554
aV.::
p2555
aa(lp2556
Vthis::
p2557
aVis::
p2558
aVthe::
p2559
aVtrue::
p2560
aVface::
p2561
aVof::
p2562
aVisrael::
p2563
aV.::
p2564
aVthese::
p2565
aVare::
p2566
aVthe::
p2567
aVvalues::
p2568
aVof::
p2569
aVisrael::
p2570
aV.::
p2571
aa(lp2572
Visrael::
p2573
aV\u2013::
p2574
aVtwenty::
p2575
aV;::
p2576
aVrest::
p2577
aVof::
p2578
aVthe::
p2579
aVworld::
p2580
aV\u2013::
p2581
aVthree::
p2582
aV.::
p2583
aa(lp2584
Vdistinguished::
p2585
aVdelegates::
p2586
aVfrom::
p2587
aVso::
p2588
aVmany::
p2589
aVlands::
p2590
aV,::
p2591
aasg287
g1
(g288
g3
Ntp2592
Rp2593
(dp2594
g292
(dp2595
(g2519
g2520
tp2596
(dp2597
g2521
I1
ss(g2511
g2512
tp2598
(dp2599
g2513
I1
ss(g2487
g2488
tp2600
(dp2601
g2489
I1
ss(g2384
g2385
tp2602
(dp2603
g2386
I1
ss(g2462
g2463
tp2604
(dp2605
g2464
I1
ss(g2473
g2474
tp2606
(dp2607
g2475
I1
ss(g2439
g2440
tp2608
(dp2609
g2441
I1
ss(g2362
g2363
tp2610
(dp2611
g2364
I1
ss(g2564
g2565
tp2612
(dp2613
g2566
I1
ss(g2513
g2514
tp2614
(dp2615
g2515
I1
ss(g2589
g2590
tp2616
(dp2617
g2591
I1
ss(g2534
g2535
tp2618
(dp2619
g401
I3
sg2565
I1
ss(g2492
g2493
tp2620
(dp2621
g2494
I1
ss(g2551
g2552
tp2622
(dp2623
g2553
I1
ss(g2576
g2577
tp2624
(dp2625
g2578
I1
ss(g2377
g2378
tp2626
(dp2627
g2379
I2
ss(g2451
g2452
tp2628
(dp2629
g2453
I1
ss(g2518
g2519
tp2630
(dp2631
g2520
I1
ss(g350
g2461
tp2632
(dp2633
g2462
I1
ss(g2365
g2366
tp2634
(dp2635
g2367
I1
sg2511
I1
sg2474
I1
sg2541
I1
ss(g2503
g2504
tp2636
(dp2637
g2505
I1
ss(g350
g2518
tp2638
(dp2639
g2519
I1
sg2545
I1
ss(g2395
g2396
tp2640
(dp2641
g2397
I1
ss(g2552
g2553
tp2642
(dp2643
g2554
I1
ss(g2401
g2402
tp2644
(dp2645
g2403
I1
ss(g350
g2585
tp2646
(dp2647
g2586
I1
ss(g2553
g2554
tp2648
(dp2649
g2555
I1
ss(g2431
g2432
tp2650
(dp2651
g2433
I1
ss(g2428
g2429
tp2652
(dp2653
g2430
I1
ss(g2446
g2447
tp2654
(dp2655
g2448
I1
ss(g2447
g2448
tp2656
(dp2657
g401
I1
sg2449
I1
ss(g2486
g2487
tp2658
(dp2659
g2488
I1
ss(g2443
g2444
tp2660
(dp2661
g2445
I1
ss(g2483
g2484
tp2662
(dp2663
g2485
I1
ss(g2476
g2477
tp2664
(dp2665
g2478
I1
ss(g2369
g2370
tp2666
(dp2667
g2371
I1
ss(g2450
g2451
tp2668
(dp2669
g2452
I1
ss(g2432
g2433
tp2670
(dp2671
g2434
I1
ss(g2546
g2547
tp2672
(dp2673
g2548
I1
ss(g2408
g2409
tp2674
(dp2675
g2410
I1
ss(g2397
g2398
tp2676
(dp2677
g2399
I1
ss(g2501
g2502
tp2678
(dp2679
g2570
I1
sg2503
I1
ss(g2514
g2515
tp2680
(dp2681
g2516
I1
ss(g2574
g2575
tp2682
(dp2683
g2576
I1
ss(g2499
g2500
tp2684
(dp2685
g2501
I1
ss(g2419
g2420
tp2686
(dp2687
g2421
I1
ss(g2526
g2527
tp2688
(dp2689
g2528
I1
ss(g2391
g2392
tp2690
(dp2691
g2393
I1
ss(g2409
g2410
tp2692
(dp2693
g2411
I1
ss(g2361
g2362
tp2694
(dp2695
g2363
I1
ss(g2482
g2483
tp2696
(dp2697
g2484
I1
ss(g2454
g2455
tp2698
(dp2699
g2456
I1
ss(g2374
g2375
tp2700
(dp2701
g2376
I1
ss(g2452
g2453
tp2702
(dp2703
g2454
I1
ss(g2416
g2417
tp2704
(dp2705
g2418
I1
ss(g2425
g2426
tp2706
(dp2707
g401
I1
ss(g2549
g2550
tp2708
(dp2709
g2551
I1
ss(g2559
g2560
tp2710
(dp2711
g2561
I1
ss(g2475
g2476
tp2712
(dp2713
g2477
I1
ss(g2590
g2591
tp2714
(dp2715
g401
I1
ss(g2422
g2423
tp2716
(dp2717
g2424
I2
sg2580
I1
ss(g2364
g2365
tp2718
(dp2719
g2408
I1
sg2366
I4
sg2425
I1
ss(g2573
g2574
tp2720
(dp2721
g2575
I1
ss(g2380
g2381
tp2722
(dp2723
g2382
I1
ss(g2489
g2490
tp2724
(dp2725
g2491
I1
ss(g2398
g2399
tp2726
(dp2727
g2400
I1
ss(g2440
g2441
tp2728
(dp2729
g2442
I1
ss(g2525
g2526
tp2730
(dp2731
g2527
I1
ss(g2457
g2458
tp2732
(dp2733
g2459
I1
ss(g2378
g2379
tp2734
(dp2735
g2451
I1
sg2380
I1
ss(g2577
g2578
tp2736
(dp2737
g2579
I1
ss(g2402
g2403
tp2738
(dp2739
g2404
I1
ss(g350
g2390
tp2740
(dp2741
g2391
I1
sg2469
I1
ss(g2493
g2494
tp2742
(dp2743
g2495
I1
ss(g2368
g2369
tp2744
(dp2745
g2370
I1
ss(g2528
g2529
tp2746
(dp2747
g2530
I1
ss(g2529
g2530
tp2748
(dp2749
g2531
I1
ss(g2421
g2422
tp2750
(dp2751
g2423
I1
ss(g2524
g2525
tp2752
(dp2753
g2526
I1
ss(g2435
g2436
tp2754
(dp2755
g2437
I1
ss(g2582
g2583
tp2756
(dp2757
g401
I1
ss(g2420
g2421
tp2758
(dp2759
g2422
I1
ss(g2477
g2478
tp2760
(dp2761
g2479
I1
ss(g2400
g2401
tp2762
(dp2763
g2402
I1
ss(g2445
g2446
tp2764
(dp2765
g2447
I1
ss(g2372
g2373
tp2766
(dp2767
g2374
I1
ss(g2588
g2589
tp2768
(dp2769
g2590
I1
ss(g2385
g2386
tp2770
(dp2771
g2387
I1
ss(g2537
g2538
tp2772
(dp2773
g2539
I1
ss(g2394
g2395
tp2774
(dp2775
g2396
I1
ss(g2531
g2532
tp2776
(dp2777
g2533
I1
ss(g2376
g2377
tp2778
(dp2779
g2378
I1
ss(g2410
g2411
tp2780
(dp2781
g2412
I1
ss(g2490
g2491
tp2782
(dp2783
g2492
I1
ss(g2512
g2513
tp2784
(dp2785
g2514
I1
ss(g2502
g2503
tp2786
(dp2787
g2504
I1
ss(g2383
g2384
tp2788
(dp2789
g2385
I1
ss(g2586
g2587
tp2790
(dp2791
g2588
I1
ss(g2430
g2431
tp2792
(dp2793
g2432
I1
ss(g350
g2428
tp2794
(dp2795
g2429
I1
ss(g2579
g2580
tp2796
(dp2797
g2581
I1
ss(g2375
g2376
tp2798
(dp2799
g2377
I1
ss(g350
g2414
tp2800
(dp2801
g2415
I1
ss(g2363
g2364
tp2802
(dp2803
g2532
I1
sg2365
I1
sg2420
I1
ss(g2438
g2439
tp2804
(dp2805
g2440
I1
ss(g2484
g2485
tp2806
(dp2807
g2486
I1
sg2493
I1
ss(g2436
g2437
tp2808
(dp2809
g2438
I1
ss(g2463
g2464
tp2810
(dp2811
g2465
I1
ss(g2382
g2383
tp2812
(dp2813
g2384
I1
ss(g2469
g2470
tp2814
(dp2815
g2471
I1
ss(g2547
g2548
tp2816
(dp2817
g2549
I1
ss(g2548
g2549
tp2818
(dp2819
g2550
I1
ss(g2405
g2406
tp2820
(dp2821
g2407
I1
sg2490
I1
ss(g2403
g2404
tp2822
(dp2823
g2405
I1
ss(g2545
g2546
tp2824
(dp2825
g2547
I1
ss(g2444
g2445
tp2826
(dp2827
g2446
I1
ss(g2500
g2501
tp2828
(dp2829
g2502
I1
ss(g2480
g2481
tp2830
(dp2831
g2482
I1
ss(g2561
g2562
tp2832
(dp2833
g2563
I1
ss(g2504
g2505
tp2834
(dp2835
g2506
I1
ss(g2371
g2372
tp2836
(dp2837
g2373
I1
ss(g2442
g2443
tp2838
(dp2839
g2444
I1
ss(g2407
g2408
tp2840
(dp2841
g2409
I1
ss(g2541
g2542
tp2842
(dp2843
g401
I1
ss(g2523
g2524
tp2844
(dp2845
g2525
I1
ss(g2585
g2586
tp2846
(dp2847
g2587
I1
ss(g2393
g2394
tp2848
(dp2849
g2395
I1
ss(g2370
g2371
tp2850
(dp2851
g2372
I1
ss(g2510
g2511
tp2852
(dp2853
g2512
I1
ss(g350
g2557
tp2854
(dp2855
g2558
I1
ss(g2455
g2456
tp2856
(dp2857
g2457
I1
ss(g2360
g2361
tp2858
(dp2859
g2362
I1
ss(g2465
g2466
tp2860
(dp2861
g401
I1
ss(g2366
g2367
tp2862
(dp2863
g2368
I1
ss(g2456
g2457
tp2864
(dp2865
g2458
I1
ss(g2415
g2416
tp2866
(dp2867
g2417
I1
ss(g2441
g2442
tp2868
(dp2869
g2443
I1
ss(g2540
g2541
tp2870
(dp2871
g2542
I1
ss(g2478
g2479
tp2872
(dp2873
g2480
I1
ss(g2464
g2465
tp2874
(dp2875
g2466
I1
ss(g2424
g2425
tp2876
(dp2877
g2426
I1
ss(g2505
g2506
tp2878
(dp2879
g2507
I1
ss(g2390
g2391
tp2880
(dp2881
g2392
I1
ss(g2468
g2469
tp2882
(dp2883
g2470
I1
ss(g2481
g2482
tp2884
(dp2885
g2500
I1
sg2509
I1
sg2568
I1
sg2483
I1
ss(g2520
g2521
tp2886
(dp2887
g2522
I1
ss(g2587
g2588
tp2888
(dp2889
g2589
I1
ss(g2557
g2558
tp2890
(dp2891
g2559
I1
ss(g2404
g2405
tp2892
(dp2893
g2406
I1
ss(g2381
g2382
tp2894
(dp2895
g2383
I1
ss(g2414
g2415
tp2896
(dp2897
g2416
I1
ss(g2479
g2480
tp2898
(dp2899
g2481
I1
ss(g2387
g2388
tp2900
(dp2901
g401
I1
ss(g350
g2537
tp2902
(dp2903
g2538
I1
ss(g2373
g2374
tp2904
(dp2905
g2375
I1
ss(g2386
g2387
tp2906
(dp2907
g2388
I1
ss(g2560
g2561
tp2908
(dp2909
g2562
I1
ss(g350
g350
tp2910
(dp2911
g2557
I1
sg2518
I2
sg2497
I1
sg2585
I1
sg2390
I2
sg2360
I1
sg2461
I1
sg2573
I1
sg2414
I1
sg2428
I1
sg2537
I1
ss(g2532
g2533
tp2912
(dp2913
g2534
I1
ss(g2396
g2397
tp2914
(dp2915
g2398
I1
ss(g2429
g2430
tp2916
(dp2917
g2431
I1
ss(g350
g2360
tp2918
(dp2919
g2361
I1
ss(g2453
g2454
tp2920
(dp2921
g2455
I1
ss(g2411
g2412
tp2922
(dp2923
g401
I1
ss(g2522
g2523
tp2924
(dp2925
g2524
I1
ss(g2379
g2380
tp2926
(dp2927
g2381
I1
ss(g2494
g2495
tp2928
(dp2929
g401
I1
ss(g2544
g2545
tp2930
(dp2931
g2546
I1
ss(g2580
g2581
tp2932
(dp2933
g2582
I1
ss(g350
g2497
tp2934
(dp2935
g2498
I1
ss(g2434
g2435
tp2936
(dp2937
g2436
I1
ss(g2515
g2516
tp2938
(dp2939
g401
I1
ss(g2521
g2522
tp2940
(dp2941
g2523
I1
ss(g2550
g2551
tp2942
(dp2943
g2552
I1
ss(g2437
g2438
tp2944
(dp2945
g2439
I1
ss(g2461
g2462
tp2946
(dp2947
g2463
I1
ss(g2417
g2418
tp2948
(dp2949
g2419
I1
ss(g2497
g2498
tp2950
(dp2951
g2499
I3
ss(g2575
g2576
tp2952
(dp2953
g2577
I1
ss(g2399
g2400
tp2954
(dp2955
g2401
I1
ss(g2485
g2486
tp2956
(dp2957
g2487
I1
ss(g350
g2573
tp2958
(dp2959
g2574
I1
ss(g2474
g2475
tp2960
(dp2961
g2476
I1
ss(g2433
g2434
tp2962
(dp2963
g2435
I1
ss(g2367
g2368
tp2964
(dp2965
g2369
I1
ss(g2558
g2559
tp2966
(dp2967
g2560
I1
ss(g2581
g2582
tp2968
(dp2969
g2583
I1
ss(g2392
g2393
tp2970
(dp2971
g2535
I3
sg2394
I1
ss(g2567
g2568
tp2972
(dp2973
g2569
I1
ss(g2527
g2528
tp2974
(dp2975
g2529
I1
sssg768
(g2557
g2518
g2497
g2585
g2390
g2360
g2461
g2573
g2414
g2428
g2537
tp2976
sg770
(lp2977
I1
aI3
aI4
aI5
aI7
aI8
aI9
aI10
aI11
aI12
aI13
asg772
I2
sbsg772
I2
sbag1
(g2
g3
Ntp2978
Rp2979
(dp2980
g7
I01
sg8
Vmy friends , we can not let that happen again . not irrational \u2026 israel is in discussions with the united states over this issue , and i am confident that we can chart a path forward together . thank you . are we to believe that rouhani , the national security adviser of iran at the time , knew nothing about these attacks ? ladies and gentlemen , a year later , north korea exploded its first nuclear weapons device . conquered . stand with israel because israel is not just defending itself . more than ever , israel is defending you . what i \u2019m about to say is going to shock you  israel has a bright future at the un . the un , begun as a moral force , has become a moral farce . the issue of settlements is a real one and it can and must be resolved in final status negotiations . thank you . happy new year . shanah tovah from israel . thank you .
p2981
sg10
(lp2982
(lp2983
Vmy::
p2984
aVfriends::
p2985
aV,::
p2986
aVwe::
p2987
aVcan::VERB
p2988
aVnot::ADV
p2989
aVlet::
p2990
aVthat::
p2991
aVhappen::
p2992
aVagain::
p2993
aV.::
p2994
aa(lp2995
Vnot::
p2996
aVirrational::
p2997
aV\u2026::
p2998
aa(lp2999
Visrael::
p3000
aVis::
p3001
aVin::
p3002
aVdiscussions::
p3003
aVwith::
p3004
aVthe::
p3005
aVunited::
p3006
aVstates::
p3007
aVover::
p3008
aVthis::
p3009
aVissue::
p3010
aV,::
p3011
aVand::
p3012
aVi::
p3013
aVam::
p3014
aVconfident::
p3015
aVthat::
p3016
aVwe::
p3017
aVcan::
p3018
aVchart::
p3019
aVa::
p3020
aVpath::
p3021
aVforward::
p3022
aVtogether::
p3023
aV.::
p3024
aa(lp3025
Vthank::
p3026
aVyou::
p3027
aV.::
p3028
aa(lp3029
Vare::
p3030
aVwe::
p3031
aVto::
p3032
aVbelieve::
p3033
aVthat::
p3034
aVrouhani::
p3035
aV,::
p3036
aVthe::
p3037
aVnational::
p3038
aVsecurity::
p3039
aVadviser::
p3040
aVof::
p3041
aViran::
p3042
aVat::
p3043
aVthe::
p3044
aVtime::
p3045
aV,::
p3046
aVknew::
p3047
aVnothing::
p3048
aVabout::
p3049
aVthese::
p3050
aVattacks::
p3051
aV?::
p3052
aa(lp3053
Vladies::
p3054
aVand::
p3055
aVgentlemen::
p3056
aV,::
p3057
aVa::
p3058
aVyear::
p3059
aVlater::
p3060
aV,::
p3061
aVnorth::
p3062
aVkorea::
p3063
aVexploded::
p3064
aVits::
p3065
aVfirst::
p3066
aVnuclear::
p3067
aVweapons::
p3068
aVdevice::
p3069
aV.::
p3070
aa(lp3071
Vconquered::
p3072
aV.::
p3073
aa(lp3074
Vstand::
p3075
aVwith::
p3076
aVisrael::
p3077
aVbecause::
p3078
aVisrael::
p3079
aVis::
p3080
aVnot::
p3081
aVjust::
p3082
aVdefending::
p3083
aVitself::
p3084
aV.::
p3085
aVmore::
p3086
aVthan::
p3087
aVever::
p3088
aV,::
p3089
aVisrael::
p3090
aVis::
p3091
aVdefending::
p3092
aVyou::
p3093
aV.::
p3094
aa(lp3095
Vwhat::
p3096
aVi::PRON
p3097
aV\u2019m::VERB
p3098
aVabout::
p3099
aVto::
p3100
aVsay::
p3101
aVis::
p3102
aVgoing::
p3103
aVto::
p3104
aVshock::
p3105
aVyou::
p3106
aV:::
p3107
aVisrael::
p3108
aVhas::
p3109
aVa::
p3110
aVbright::
p3111
aVfuture::
p3112
aVat::
p3113
aVthe::
p3114
aVun::
p3115
aV.::
p3116
aa(lp3117
Vthe::
p3118
aVun::
p3119
aV,::
p3120
aVbegun::
p3121
aVas::
p3122
aVa::
p3123
aVmoral::
p3124
aVforce::
p3125
aV,::
p3126
aVhas::
p3127
aVbecome::
p3128
aVa::
p3129
aVmoral::
p3130
aVfarce::
p3131
aV.::
p3132
aa(lp3133
Vthe::
p3134
aVissue::
p3135
aVof::
p3136
aVsettlements::
p3137
aVis::
p3138
aVa::
p3139
aVreal::
p3140
aVone::
p3141
aVand::
p3142
aVit::
p3143
aVcan::
p3144
aVand::
p3145
aVmust::
p3146
aVbe::
p3147
aVresolved::
p3148
aVin::
p3149
aVfinal::
p3150
aVstatus::
p3151
aVnegotiations::
p3152
aV.::
p3153
aa(lp3154
Vthank::
p3155
aVyou::
p3156
aV.::
p3157
aa(lp3158
Vhappy::
p3159
aVnew::
p3160
aVyear::
p3161
aV.::
p3162
aVshanah::
p3163
aVtovah::
p3164
aVfrom::
p3165
aVisrael::
p3166
aV.::
p3167
aVthank::
p3168
aVyou::
p3169
aV.::
p3170
aasg287
g1
(g288
g3
Ntp3171
Rp3172
(dp3173
g292
(dp3174
(g3142
g3143
tp3175
(dp3176
g3144
I1
ss(g3105
g3106
tp3177
(dp3178
g3107
I1
ss(g3162
g3163
tp3179
(dp3180
g3164
I1
ss(g3141
g3142
tp3181
(dp3182
g3143
I1
ss(g3033
g3034
tp3183
(dp3184
g3035
I1
ss(g3019
g3020
tp3185
(dp3186
g3021
I1
ss(g3120
g3121
tp3187
(dp3188
g3122
I1
ss(g2991
g2992
tp3189
(dp3190
g2993
I1
ss(g2987
g2988
tp3191
(dp3192
g2989
I1
ss(g3165
g3166
tp3193
(dp3194
g3167
I1
ss(g3057
g3058
tp3195
(dp3196
g3059
I1
ss(g3003
g3004
tp3197
(dp3198
g3005
I1
ss(g3140
g3141
tp3199
(dp3200
g3142
I1
ss(g3109
g3110
tp3201
(dp3202
g3111
I1
ss(g3130
g3131
tp3203
(dp3204
g3132
I1
ss(g3150
g3151
tp3205
(dp3206
g3152
I1
ss(g3066
g3067
tp3207
(dp3208
g3068
I1
ss(g3166
g3167
tp3209
(dp3210
g3168
I1
ss(g3062
g3063
tp3211
(dp3212
g3064
I1
ss(g3160
g3161
tp3213
(dp3214
g3162
I1
ss(g3034
g3035
tp3215
(dp3216
g3036
I1
ss(g3040
g3041
tp3217
(dp3218
g3042
I1
ss(g3009
g3010
tp3219
(dp3220
g3011
I1
ss(g3027
g3028
tp3221
(dp3222
g401
I4
ss(g3030
g3031
tp3223
(dp3224
g3032
I1
ss(g3108
g3109
tp3225
(dp3226
g3110
I1
ss(g3076
g3077
tp3227
(dp3228
g3078
I1
ss(g3068
g3069
tp3229
(dp3230
g3070
I1
ss(g3122
g3123
tp3231
(dp3232
g3124
I1
ss(g350
g3072
tp3233
(dp3234
g3073
I1
ss(g3046
g3047
tp3235
(dp3236
g3048
I1
ss(g3128
g3129
tp3237
(dp3238
g3130
I1
ss(g3069
g3070
tp3239
(dp3240
g401
I1
ss(g3082
g3083
tp3241
(dp3242
g3084
I1
ss(g3111
g3112
tp3243
(dp3244
g3113
I1
ss(g3144
g3145
tp3245
(dp3246
g3146
I1
ss(g3065
g3066
tp3247
(dp3248
g3067
I1
ss(g3100
g3101
tp3249
(dp3250
g3102
I1
ss(g3115
g3116
tp3251
(dp3252
g401
I1
ss(g2997
g2998
tp3253
(dp3254
g401
I1
ss(g350
g2984
tp3255
(dp3256
g2985
I1
ss(g3014
g3015
tp3257
(dp3258
g3016
I1
ss(g3017
g3018
tp3259
(dp3260
g3019
I1
ss(g3035
g3036
tp3261
(dp3262
g3037
I1
ss(g350
g3159
tp3263
(dp3264
g3160
I1
ss(g2986
g2987
tp3265
(dp3266
g2988
I1
ss(g3110
g3111
tp3267
(dp3268
g3112
I1
ss(g3134
g3135
tp3269
(dp3270
g3136
I1
ss(g3060
g3061
tp3271
(dp3272
g3062
I1
ss(g3091
g3092
tp3273
(dp3274
g3093
I1
ss(g3004
g3005
tp3275
(dp3276
g3006
I1
ss(g3106
g3107
tp3277
(dp3278
g3108
I1
ss(g3161
g3162
tp3279
(dp3280
g3163
I1
ss(g3026
g3027
tp3281
(dp3282
g3028
I3
ss(g3012
g3013
tp3283
(dp3284
g3014
I1
ss(g3088
g3089
tp3285
(dp3286
g3090
I1
ss(g2992
g2993
tp3287
(dp3288
g2994
I1
ss(g3032
g3033
tp3289
(dp3290
g3034
I1
ss(g3013
g3014
tp3291
(dp3292
g3015
I1
ss(g350
g3054
tp3293
(dp3294
g3055
I1
ss(g3002
g3003
tp3295
(dp3296
g3004
I1
ss(g3081
g3082
tp3297
(dp3298
g3083
I1
ss(g3121
g3122
tp3299
(dp3300
g3123
I1
ss(g3163
g3164
tp3301
(dp3302
g3165
I1
ss(g3063
g3064
tp3303
(dp3304
g3065
I1
ss(g3147
g3148
tp3305
(dp3306
g3149
I1
ss(g3050
g3051
tp3307
(dp3308
g3052
I1
ss(g3048
g3049
tp3309
(dp3310
g3050
I1
ss(g3149
g3150
tp3311
(dp3312
g3151
I1
ss(g3092
g3093
tp3313
(dp3314
g3094
I1
ss(g3047
g3048
tp3315
(dp3316
g3049
I1
ss(g3021
g3022
tp3317
(dp3318
g3023
I1
ss(g2988
g2989
tp3319
(dp3320
g2990
I1
ss(g3126
g3127
tp3321
(dp3322
g3128
I1
ss(g3056
g3057
tp3323
(dp3324
g3058
I1
ss(g3096
g3097
tp3325
(dp3326
g3098
I1
ss(g3124
g3125
tp3327
(dp3328
g3126
I1
ss(g3078
g3079
tp3329
(dp3330
g3080
I1
ss(g3059
g3060
tp3331
(dp3332
g3061
I1
ss(g3119
g3120
tp3333
(dp3334
g3121
I1
ss(g3077
g3078
tp3335
(dp3336
g3079
I1
ss(g3042
g3043
tp3337
(dp3338
g3044
I1
ss(g350
g3118
tp3339
(dp3340
g3119
I1
sg3135
I1
ss(g3145
g3146
tp3341
(dp3342
g3147
I1
ss(g3151
g3152
tp3343
(dp3344
g3153
I1
ss(g3008
g3009
tp3345
(dp3346
g3010
I1
ss(g3087
g3088
tp3347
(dp3348
g3089
I1
ss(g3005
g3006
tp3349
(dp3350
g3007
I1
ss(g2996
g2997
tp3351
(dp3352
g2998
I1
ss(g3038
g3039
tp3353
(dp3354
g3040
I1
ss(g3007
g3008
tp3355
(dp3356
g3009
I1
ss(g3016
g3017
tp3357
(dp3358
g3018
I1
ss(g3099
g3100
tp3359
(dp3360
g3101
I1
ss(g3101
g3102
tp3361
(dp3362
g3103
I1
ss(g3064
g3065
tp3363
(dp3364
g3066
I1
ss(g2984
g2985
tp3365
(dp3366
g2986
I1
ss(g3067
g3068
tp3367
(dp3368
g3069
I1
ss(g3083
g3084
tp3369
(dp3370
g3085
I1
ss(g3080
g3081
tp3371
(dp3372
g3082
I1
ss(g3036
g3037
tp3373
(dp3374
g3038
I1
ss(g3061
g3062
tp3375
(dp3376
g3063
I1
ss(g3001
g3002
tp3377
(dp3378
g3003
I1
ss(g3137
g3138
tp3379
(dp3380
g3139
I1
ss(g3136
g3137
tp3381
(dp3382
g3138
I1
ss(g3085
g3086
tp3383
(dp3384
g3087
I1
ss(g3055
g3056
tp3385
(dp3386
g3057
I1
ss(g3086
g3087
tp3387
(dp3388
g3088
I1
ss(g3146
g3147
tp3389
(dp3390
g3148
I1
ss(g350
g3030
tp3391
(dp3392
g3031
I1
ss(g3039
g3040
tp3393
(dp3394
g3041
I1
ss(g2989
g2990
tp3395
(dp3396
g2991
I1
ss(g3054
g3055
tp3397
(dp3398
g3056
I1
ss(g3139
g3140
tp3399
(dp3400
g3141
I1
ss(g3049
g3050
tp3401
(dp3402
g3051
I1
ss(g3148
g3149
tp3403
(dp3404
g3150
I1
ss(g3098
g3099
tp3405
(dp3406
g3100
I1
ss(g3097
g3098
tp3407
(dp3408
g3099
I1
ss(g3015
g3016
tp3409
(dp3410
g3017
I1
ss(g3112
g3113
tp3411
(dp3412
g3114
I1
ss(g3010
g3011
tp3413
(dp3414
g3012
I1
ss(g3135
g3136
tp3415
(dp3416
g3137
I1
ss(g3044
g3045
tp3417
(dp3418
g3046
I1
ss(g3159
g3160
tp3419
(dp3420
g3161
I1
ss(g2985
g2986
tp3421
(dp3422
g2987
I1
ss(g3138
g3139
tp3423
(dp3424
g3140
I1
ss(g3075
g3076
tp3425
(dp3426
g3077
I1
ss(g3006
g3007
tp3427
(dp3428
g3008
I1
ss(g3023
g3024
tp3429
(dp3430
g401
I1
ss(g3164
g3165
tp3431
(dp3432
g3166
I1
ss(g3011
g3012
tp3433
(dp3434
g3013
I1
ss(g3018
g3019
tp3435
(dp3436
g3020
I1
ss(g3104
g3105
tp3437
(dp3438
g3106
I1
ss(g3000
g3001
tp3439
(dp3440
g3002
I1
sg3092
I1
sg3081
I1
ss(g350
g2996
tp3441
(dp3442
g2997
I1
ss(g3107
g3108
tp3443
(dp3444
g3109
I1
ss(g350
g350
tp3445
(dp3446
g3054
I1
sg3075
I1
sg3096
I1
sg3159
I1
sg3118
I2
sg3072
I1
sg3000
I1
sg3026
I2
sg2984
I1
sg3030
I1
sg2996
I1
ss(g3020
g3021
tp3447
(dp3448
g3022
I1
ss(g350
g3075
tp3449
(dp3450
g3076
I1
ss(g3037
g3038
tp3451
(dp3452
g3039
I1
ss(g350
g3026
tp3453
(dp3454
g3027
I2
ss(g3041
g3042
tp3455
(dp3456
g3043
I1
ss(g3084
g3085
tp3457
(dp3458
g3086
I1
ss(g2990
g2991
tp3459
(dp3460
g2992
I1
ss(g3125
g3126
tp3461
(dp3462
g3127
I1
ss(g3143
g3144
tp3463
(dp3464
g3145
I1
ss(g350
g3096
tp3465
(dp3466
g3097
I1
ss(g3131
g3132
tp3467
(dp3468
g401
I1
ss(g2993
g2994
tp3469
(dp3470
g401
I1
ss(g3051
g3052
tp3471
(dp3472
g401
I1
ss(g3031
g3032
tp3473
(dp3474
g3033
I1
ss(g3114
g3115
tp3475
(dp3476
g3116
I1
sg3120
I1
ss(g3072
g3073
tp3477
(dp3478
g401
I1
ss(g3058
g3059
tp3479
(dp3480
g3060
I1
ss(g3102
g3103
tp3481
(dp3482
g3104
I1
ss(g3022
g3023
tp3483
(dp3484
g3024
I1
ss(g3167
g3168
tp3485
(dp3486
g3169
I1
ss(g3043
g3044
tp3487
(dp3488
g3045
I1
sg3115
I1
ss(g350
g3000
tp3489
(dp3490
g3001
I1
ss(g3152
g3153
tp3491
(dp3492
g401
I1
ss(g3103
g3104
tp3493
(dp3494
g3105
I1
ss(g3045
g3046
tp3495
(dp3496
g3047
I1
ss(g3127
g3128
tp3497
(dp3498
g3129
I1
ss(g3123
g3124
tp3499
(dp3500
g3131
I1
sg3125
I1
ss(g3089
g3090
tp3501
(dp3502
g3091
I1
sssg768
(g3054
g3075
g3096
g3159
g3118
g3072
g3000
g3026
g2984
g3030
g2996
tp3503
sg770
(lp3504
I1
aI2
aI3
aI4
aI6
aI7
aI8
aI10
aI11
aI12
aI13
asg772
I2
sbsg772
I2
sbag1
(g2
g3
Ntp3505
Rp3506
(dp3507
g7
I01
sg8
Vthe forces of medievalism seek a world in which women and minorities are subjugated , in which knowledge is suppressed , in which not life but death is glorified . i am sure of one thing . ultimately they will fail . ultimately , light will penetrate the darkness . to understand what the world would be like with a nuclear - armed iran , just imagine the world with a nuclear - armed al - qaeda . just look at what the iranian regime has done up till now , without nuclear weapons . there are those who believe that a nuclear - armed iran can be deterred like the soviet union . that \u2019s a very dangerous assumption . that \u2019s not just what they believe . that \u2019s what is actually guiding their policies and their actions . and that \u2019s coming from one of the so - called moderates of iran . that \u2019s like saying a nuclear - armed al - qaeda would usher in an era of universal peace . i \u2019ve been speaking about the need to prevent iran from developing nuclear weapons for over 15 years . for nearly a decade , the international community has tried to stop the iranian nuclear program with diplomacy . that hasn\u2019t worked . iran uses diplomatic negotiations as a means to buy time to advance its nuclear program . it \u2019s had an effect on the economy , but we must face the truth . sanctions have not stopped iran \u2019s nuclear program either . red lines do n\u2019t lead to war ; red lines prevent war . in fact , it \u2019s the failure to place red lines that has often invited aggression . clear red lines have also worked with iran . in contrast , iran could produce the nuclear detonator \u2013 the fuse \u2013 in a lot less time , maybe under a year , maybe only a few months . so if these are the facts , and they are , where should the red line be drawn ? the red line should be drawn right here \u2026 each day , that point is getting closer . that \u2019s why i speak today with such a sense of urgency . and that \u2019s why everyone should have a sense of urgency . do we want to risk the security of the world on the assumption that we would find in time a small workshop in a country half the size of europe ? i believe that faced with a clear red line , iran will back down . this will give more time for sanctions and diplomacy to convince iran to dismantle its nuclear weapons program altogether . it \u2019s not easy to oppose something that is embraced by the greatest powers in the world . believe me , it would be far easier to remain silent . not being passive means speaking up about those dangers . we have . we are . we will . not being passive also means defending ourselves against those dangers . we have . we are . and we will . yet the jewish people persevered . am israel hai well , of one thing i can assure you  israel will be watching \u2026 closely . now , for some , this story shows that both sides have their extremists and both sides are equally responsible for this seemingly endless conflict . the greatest threat to my country , to our region , and ultimately to our world remains the militant islamic regime of iran .
p3508
sg10
(lp3509
(lp3510
Vthe::
p3511
aVforces::
p3512
aVof::
p3513
aVmedievalism::
p3514
aVseek::
p3515
aVa::
p3516
aVworld::
p3517
aVin::
p3518
aVwhich::
p3519
aVwomen::
p3520
aVand::
p3521
aVminorities::
p3522
aVare::
p3523
aVsubjugated::
p3524
aV,::
p3525
aVin::
p3526
aVwhich::
p3527
aVknowledge::
p3528
aVis::
p3529
aVsuppressed::
p3530
aV,::
p3531
aVin::
p3532
aVwhich::
p3533
aVnot::
p3534
aVlife::
p3535
aVbut::
p3536
aVdeath::
p3537
aVis::
p3538
aVglorified::
p3539
aV.::
p3540
aa(lp3541
Vi::
p3542
aVam::
p3543
aVsure::
p3544
aVof::
p3545
aVone::
p3546
aVthing::
p3547
aV.::
p3548
aVultimately::
p3549
aVthey::
p3550
aVwill::
p3551
aVfail::
p3552
aV.::
p3553
aVultimately::
p3554
aV,::
p3555
aVlight::
p3556
aVwill::
p3557
aVpenetrate::
p3558
aVthe::
p3559
aVdarkness::
p3560
aV.::
p3561
aa(lp3562
Vto::
p3563
aVunderstand::
p3564
aVwhat::
p3565
aVthe::
p3566
aVworld::
p3567
aVwould::
p3568
aVbe::
p3569
aVlike::
p3570
aVwith::
p3571
aVa::
p3572
aVnuclear::
p3573
aV-::
p3574
aVarmed::
p3575
aViran::
p3576
aV,::
p3577
aVjust::
p3578
aVimagine::
p3579
aVthe::
p3580
aVworld::
p3581
aVwith::
p3582
aVa::
p3583
aVnuclear::
p3584
aV-::
p3585
aVarmed::
p3586
aVal::
p3587
aV-::
p3588
aVqaeda::
p3589
aV.::
p3590
aa(lp3591
Vjust::
p3592
aVlook::
p3593
aVat::
p3594
aVwhat::
p3595
aVthe::
p3596
aViranian::
p3597
aVregime::
p3598
aVhas::
p3599
aVdone::
p3600
aVup::
p3601
aVtill::
p3602
aVnow::
p3603
aV,::
p3604
aVwithout::
p3605
aVnuclear::
p3606
aVweapons::
p3607
aV.::
p3608
aa(lp3609
Vthere::
p3610
aVare::
p3611
aVthose::
p3612
aVwho::
p3613
aVbelieve::
p3614
aVthat::
p3615
aVa::
p3616
aVnuclear::
p3617
aV-::
p3618
aVarmed::
p3619
aViran::
p3620
aVcan::
p3621
aVbe::
p3622
aVdeterred::
p3623
aVlike::
p3624
aVthe::
p3625
aVsoviet::
p3626
aVunion::
p3627
aV.::
p3628
aa(lp3629
Vthat::
p3630
aV\u2019s::
p3631
aVa::
p3632
aVvery::
p3633
aVdangerous::
p3634
aVassumption::
p3635
aV.::
p3636
aa(lp3637
Vthat::
p3638
aV\u2019s::
p3639
aVnot::
p3640
aVjust::
p3641
aVwhat::
p3642
aVthey::
p3643
aVbelieve::
p3644
aV.::
p3645
aVthat::
p3646
aV\u2019s::
p3647
aVwhat::
p3648
aVis::
p3649
aVactually::
p3650
aVguiding::
p3651
aVtheir::
p3652
aVpolicies::
p3653
aVand::
p3654
aVtheir::
p3655
aVactions::
p3656
aV.::
p3657
aa(lp3658
Vand::
p3659
aVthat::
p3660
aV\u2019s::
p3661
aVcoming::
p3662
aVfrom::
p3663
aVone::
p3664
aVof::
p3665
aVthe::
p3666
aVso::
p3667
aV-::
p3668
aVcalled::
p3669
aVmoderates::
p3670
aVof::
p3671
aViran::
p3672
aV.::
p3673
aa(lp3674
Vthat::
p3675
aV\u2019s::
p3676
aVlike::
p3677
aVsaying::
p3678
aVa::
p3679
aVnuclear::
p3680
aV-::
p3681
aVarmed::
p3682
aVal::
p3683
aV-::
p3684
aVqaeda::
p3685
aVwould::
p3686
aVusher::
p3687
aVin::
p3688
aVan::
p3689
aVera::
p3690
aVof::
p3691
aVuniversal::
p3692
aVpeace::
p3693
aV.::
p3694
aa(lp3695
Vi::PRON
p3696
aV\u2019ve::VERB
p3697
aVbeen::
p3698
aVspeaking::
p3699
aVabout::
p3700
aVthe::
p3701
aVneed::
p3702
aVto::
p3703
aVprevent::
p3704
aViran::
p3705
aVfrom::
p3706
aVdeveloping::
p3707
aVnuclear::
p3708
aVweapons::
p3709
aVfor::
p3710
aVover::
p3711
aV15::
p3712
aVyears::
p3713
aV.::
p3714
aa(lp3715
Vfor::
p3716
aVnearly::
p3717
aVa::
p3718
aVdecade::
p3719
aV,::
p3720
aVthe::
p3721
aVinternational::
p3722
aVcommunity::
p3723
aVhas::
p3724
aVtried::
p3725
aVto::
p3726
aVstop::
p3727
aVthe::
p3728
aViranian::
p3729
aVnuclear::
p3730
aVprogram::
p3731
aVwith::
p3732
aVdiplomacy::
p3733
aV.::
p3734
aa(lp3735
Vthat::
p3736
aVhasn\u2019t::
p3737
aVworked::
p3738
aV.::
p3739
aa(lp3740
Viran::
p3741
aVuses::
p3742
aVdiplomatic::
p3743
aVnegotiations::
p3744
aVas::
p3745
aVa::
p3746
aVmeans::
p3747
aVto::
p3748
aVbuy::
p3749
aVtime::
p3750
aVto::
p3751
aVadvance::
p3752
aVits::
p3753
aVnuclear::
p3754
aVprogram::
p3755
aV.::
p3756
aa(lp3757
Vit::PRON
p3758
aV\u2019s::
p3759
aVhad::
p3760
aVan::
p3761
aVeffect::
p3762
aVon::
p3763
aVthe::
p3764
aVeconomy::
p3765
aV,::
p3766
aVbut::
p3767
aVwe::
p3768
aVmust::
p3769
aVface::
p3770
aVthe::
p3771
aVtruth::
p3772
aV.::
p3773
aVsanctions::
p3774
aVhave::
p3775
aVnot::
p3776
aVstopped::
p3777
aViran::
p3778
aV\u2019s::
p3779
aVnuclear::
p3780
aVprogram::
p3781
aVeither::
p3782
aV.::
p3783
aa(lp3784
Vred::
p3785
aVlines::
p3786
aVdo::
p3787
aVn\u2019t::ADV
p3788
aVlead::
p3789
aVto::
p3790
aVwar::
p3791
aV;::
p3792
aVred::
p3793
aVlines::
p3794
aVprevent::
p3795
aVwar::
p3796
aV.::
p3797
aa(lp3798
Vin::
p3799
aVfact::
p3800
aV,::
p3801
aVit::PRON
p3802
aV\u2019s::
p3803
aVthe::
p3804
aVfailure::
p3805
aVto::
p3806
aVplace::
p3807
aVred::
p3808
aVlines::
p3809
aVthat::
p3810
aVhas::
p3811
aVoften::
p3812
aVinvited::
p3813
aVaggression::
p3814
aV.::
p3815
aa(lp3816
Vclear::
p3817
aVred::
p3818
aVlines::
p3819
aVhave::
p3820
aValso::
p3821
aVworked::
p3822
aVwith::
p3823
aViran::
p3824
aV.::
p3825
aa(lp3826
Vin::
p3827
aVcontrast::
p3828
aV,::
p3829
aViran::
p3830
aVcould::
p3831
aVproduce::
p3832
aVthe::
p3833
aVnuclear::
p3834
aVdetonator::
p3835
aV\u2013::
p3836
aVthe::
p3837
aVfuse::
p3838
aV\u2013::
p3839
aVin::
p3840
aVa::
p3841
aVlot::
p3842
aVless::
p3843
aVtime::
p3844
aV,::
p3845
aVmaybe::
p3846
aVunder::
p3847
aVa::
p3848
aVyear::
p3849
aV,::
p3850
aVmaybe::
p3851
aVonly::
p3852
aVa::
p3853
aVfew::
p3854
aVmonths::
p3855
aV.::
p3856
aa(lp3857
Vso::
p3858
aVif::
p3859
aVthese::
p3860
aVare::
p3861
aVthe::
p3862
aVfacts::
p3863
aV,::
p3864
aVand::
p3865
aVthey::
p3866
aVare::
p3867
aV,::
p3868
aVwhere::
p3869
aVshould::
p3870
aVthe::
p3871
aVred::
p3872
aVline::
p3873
aVbe::
p3874
aVdrawn::
p3875
aV?::
p3876
aa(lp3877
Vthe::
p3878
aVred::
p3879
aVline::
p3880
aVshould::
p3881
aVbe::
p3882
aVdrawn::
p3883
aVright::
p3884
aVhere::
p3885
aV\u2026::
p3886
aa(lp3887
Veach::
p3888
aVday::
p3889
aV,::
p3890
aVthat::
p3891
aVpoint::
p3892
aVis::
p3893
aVgetting::
p3894
aVcloser::
p3895
aV.::
p3896
aVthat::
p3897
aV\u2019s::
p3898
aVwhy::
p3899
aVi::
p3900
aVspeak::
p3901
aVtoday::
p3902
aVwith::
p3903
aVsuch::
p3904
aVa::
p3905
aVsense::
p3906
aVof::
p3907
aVurgency::
p3908
aV.::
p3909
aVand::
p3910
aVthat::
p3911
aV\u2019s::
p3912
aVwhy::
p3913
aVeveryone::
p3914
aVshould::
p3915
aVhave::
p3916
aVa::
p3917
aVsense::
p3918
aVof::
p3919
aVurgency::
p3920
aV.::
p3921
aa(lp3922
Vdo::
p3923
aVwe::
p3924
aVwant::
p3925
aVto::
p3926
aVrisk::
p3927
aVthe::
p3928
aVsecurity::
p3929
aVof::
p3930
aVthe::
p3931
aVworld::
p3932
aVon::
p3933
aVthe::
p3934
aVassumption::
p3935
aVthat::
p3936
aVwe::
p3937
aVwould::
p3938
aVfind::
p3939
aVin::
p3940
aVtime::
p3941
aVa::
p3942
aVsmall::
p3943
aVworkshop::
p3944
aVin::
p3945
aVa::
p3946
aVcountry::
p3947
aVhalf::
p3948
aVthe::
p3949
aVsize::
p3950
aVof::
p3951
aVeurope::
p3952
aV?::
p3953
aa(lp3954
Vi::
p3955
aVbelieve::
p3956
aVthat::
p3957
aVfaced::
p3958
aVwith::
p3959
aVa::
p3960
aVclear::
p3961
aVred::
p3962
aVline::
p3963
aV,::
p3964
aViran::
p3965
aVwill::
p3966
aVback::
p3967
aVdown::
p3968
aV.::
p3969
aa(lp3970
Vthis::
p3971
aVwill::
p3972
aVgive::
p3973
aVmore::
p3974
aVtime::
p3975
aVfor::
p3976
aVsanctions::
p3977
aVand::
p3978
aVdiplomacy::
p3979
aVto::
p3980
aVconvince::
p3981
aViran::
p3982
aVto::
p3983
aVdismantle::
p3984
aVits::
p3985
aVnuclear::
p3986
aVweapons::
p3987
aVprogram::
p3988
aValtogether::
p3989
aV.::
p3990
aa(lp3991
Vit::PRON
p3992
aV\u2019s::
p3993
aVnot::
p3994
aVeasy::
p3995
aVto::
p3996
aVoppose::
p3997
aVsomething::
p3998
aVthat::
p3999
aVis::
p4000
aVembraced::
p4001
aVby::
p4002
aVthe::
p4003
aVgreatest::
p4004
aVpowers::
p4005
aVin::
p4006
aVthe::
p4007
aVworld::
p4008
aV.::
p4009
aVbelieve::
p4010
aVme::
p4011
aV,::
p4012
aVit::
p4013
aVwould::
p4014
aVbe::
p4015
aVfar::
p4016
aVeasier::
p4017
aVto::
p4018
aVremain::
p4019
aVsilent::
p4020
aV.::
p4021
aa(lp4022
Vnot::
p4023
aVbeing::
p4024
aVpassive::
p4025
aVmeans::
p4026
aVspeaking::
p4027
aVup::
p4028
aVabout::
p4029
aVthose::
p4030
aVdangers::
p4031
aV.::
p4032
aVwe::
p4033
aVhave::
p4034
aV.::
p4035
aVwe::
p4036
aVare::
p4037
aV.::
p4038
aVwe::
p4039
aVwill::
p4040
aV.::
p4041
aa(lp4042
Vnot::
p4043
aVbeing::
p4044
aVpassive::
p4045
aValso::
p4046
aVmeans::
p4047
aVdefending::
p4048
aVourselves::
p4049
aVagainst::
p4050
aVthose::
p4051
aVdangers::
p4052
aV.::
p4053
aVwe::
p4054
aVhave::
p4055
aV.::
p4056
aVwe::
p4057
aVare::
p4058
aV.::
p4059
aVand::
p4060
aVwe::
p4061
aVwill::
p4062
aV.::
p4063
aa(lp4064
Vyet::
p4065
aVthe::
p4066
aVjewish::
p4067
aVpeople::
p4068
aVpersevered::
p4069
aV.::
p4070
aa(lp4071
Vam::
p4072
aVisrael::
p4073
aVhai::
p4074
aa(lp4075
Vwell::
p4076
aV,::
p4077
aVof::
p4078
aVone::
p4079
aVthing::
p4080
aVi::
p4081
aVcan::
p4082
aVassure::
p4083
aVyou::
p4084
aV:::
p4085
aVisrael::
p4086
aVwill::
p4087
aVbe::
p4088
aVwatching::
p4089
aV\u2026::
p4090
aVclosely::
p4091
aV.::
p4092
aa(lp4093
Vnow::
p4094
aV,::
p4095
aVfor::
p4096
aVsome::
p4097
aV,::
p4098
aVthis::
p4099
aVstory::
p4100
aVshows::
p4101
aVthat::
p4102
aVboth::
p4103
aVsides::
p4104
aVhave::
p4105
aVtheir::
p4106
aVextremists::
p4107
aVand::
p4108
aVboth::
p4109
aVsides::
p4110
aVare::
p4111
aVequally::
p4112
aVresponsible::
p4113
aVfor::
p4114
aVthis::
p4115
aVseemingly::
p4116
aVendless::
p4117
aVconflict::
p4118
aV.::
p4119
aa(lp4120
Vthe::
p4121
aVgreatest::
p4122
aVthreat::
p4123
aVto::
p4124
aVmy::
p4125
aVcountry::
p4126
aV,::
p4127
aVto::
p4128
aVour::
p4129
aVregion::
p4130
aV,::
p4131
aVand::
p4132
aVultimately::
p4133
aVto::
p4134
aVour::
p4135
aVworld::
p4136
aVremains::
p4137
aVthe::
p4138
aVmilitant::
p4139
aVislamic::
p4140
aVregime::
p4141
aVof::
p4142
aViran::
p4143
aV.::
p4144
aasg287
g1
(g288
g3
Ntp4145
Rp4146
(dp4147
g292
(dp4148
(g3614
g3615
tp4149
(dp4150
g3616
I1
sg3958
I1
ss(g4113
g4114
tp4151
(dp4152
g4115
I1
ss(g4047
g4048
tp4153
(dp4154
g4049
I1
ss(g3778
g3779
tp4155
(dp4156
g3780
I1
ss(g3855
g3856
tp4157
(dp4158
g401
I1
ss(g3543
g3544
tp4159
(dp4160
g3545
I1
ss(g3902
g3903
tp4161
(dp4162
g3904
I1
ss(g3965
g3966
tp4163
(dp4164
g3967
I1
ss(g3942
g3943
tp4165
(dp4166
g3944
I1
ss(g3661
g3662
tp4167
(dp4168
g3663
I1
ss(g3639
g3640
tp4169
(dp4170
g3641
I1
sg3995
I1
ss(g3903
g3904
tp4171
(dp4172
g3905
I1
ss(g3666
g3667
tp4173
(dp4174
g3668
I1
ss(g3551
g3552
tp4175
(dp4176
g3553
I1
ss(g3881
g3882
tp4177
(dp4178
g3883
I1
ss(g4081
g4082
tp4179
(dp4180
g4083
I1
ss(g3752
g3753
tp4181
(dp4182
g3754
I1
ss(g3723
g3724
tp4183
(dp4184
g3725
I1
ss(g3934
g3935
tp4185
(dp4186
g3936
I1
ss(g3731
g3732
tp4187
(dp4188
g3733
I1
ss(g3765
g3766
tp4189
(dp4190
g3767
I1
ss(g3605
g3606
tp4191
(dp4192
g3607
I1
ss(g350
g3799
tp4193
(dp4194
g3800
I1
sg3828
I1
ss(g3904
g3905
tp4195
(dp4196
g3906
I1
ss(g3747
g3748
tp4197
(dp4198
g3749
I1
ss(g3664
g3665
tp4199
(dp4200
g3666
I1
ss(g3557
g3558
tp4201
(dp4202
g3559
I1
ss(g3865
g3866
tp4203
(dp4204
g3867
I1
ss(g3732
g3733
tp4205
(dp4206
g3734
I1
ss(g3906
g3907
tp4207
(dp4208
g3908
I2
ss(g4139
g4140
tp4209
(dp4210
g4141
I1
ss(g3725
g3726
tp4211
(dp4212
g3727
I1
ss(g3892
g3893
tp4213
(dp4214
g3894
I1
ss(g3822
g3823
tp4215
(dp4216
g3824
I1
ss(g3523
g3524
tp4217
(dp4218
g3525
I1
ss(g3820
g3821
tp4219
(dp4220
g3822
I1
ss(g3686
g3687
tp4221
(dp4222
g3688
I1
ss(g3975
g3976
tp4223
(dp4224
g3977
I1
ss(g4127
g4128
tp4225
(dp4226
g4129
I1
ss(g3634
g3635
tp4227
(dp4228
g3636
I1
ss(g3823
g3824
tp4229
(dp4230
g3825
I1
ss(g3927
g3928
tp4231
(dp4232
g3929
I1
ss(g3915
g3916
tp4233
(dp4234
g3917
I1
ss(g3539
g3540
tp4235
(dp4236
g401
I1
ss(g3901
g3902
tp4237
(dp4238
g3903
I1
ss(g3908
g3909
tp4239
(dp4240
g401
I1
sg3910
I1
ss(g3989
g3990
tp4241
(dp4242
g401
I1
ss(g3640
g3641
tp4243
(dp4244
g3642
I1
ss(g3689
g3690
tp4245
(dp4246
g3691
I1
ss(g3546
g3547
tp4247
(dp4248
g3548
I1
sg4081
I1
ss(g3758
g3759
tp4249
(dp4250
g3760
I1
sg3804
I1
sg3994
I1
ss(g3809
g3810
tp4251
(dp4252
g3811
I1
ss(g3875
g3876
tp4253
(dp4254
g401
I1
ss(g4102
g4103
tp4255
(dp4256
g4104
I1
ss(g3529
g3530
tp4257
(dp4258
g3531
I1
ss(g3779
g3780
tp4259
(dp4260
g3781
I1
ss(g3893
g3894
tp4261
(dp4262
g3895
I1
ss(g3935
g3936
tp4263
(dp4264
g3937
I1
ss(g3830
g3831
tp4265
(dp4266
g3832
I1
ss(g350
g3563
tp4267
(dp4268
g3564
I1
ss(g3601
g3602
tp4269
(dp4270
g3603
I1
ss(g3552
g3553
tp4271
(dp4272
g3554
I1
ss(g3520
g3521
tp4273
(dp4274
g3522
I1
ss(g3672
g3673
tp4275
(dp4276
g401
I3
ss(g4086
g4087
tp4277
(dp4278
g4088
I1
ss(g3800
g3801
tp4279
(dp4280
g3802
I1
ss(g3627
g3628
tp4281
(dp4282
g401
I1
ss(g3839
g3840
tp4283
(dp4284
g3841
I1
ss(g4068
g4069
tp4285
(dp4286
g4070
I1
ss(g3966
g3967
tp4287
(dp4288
g3968
I1
ss(g3688
g3689
tp4289
(dp4290
g3690
I1
ss(g4016
g4017
tp4291
(dp4292
g4018
I1
ss(g3926
g3927
tp4293
(dp4294
g3928
I1
ss(g3653
g3654
tp4295
(dp4296
g3655
I1
ss(g3570
g3571
tp4297
(dp4298
g3572
I1
ss(g3862
g3863
tp4299
(dp4300
g3864
I1
ss(g4087
g4088
tp4301
(dp4302
g4089
I1
ss(g3885
g3886
tp4303
(dp4304
g401
I1
ss(g3631
g3632
tp4305
(dp4306
g3633
I1
ss(g3854
g3855
tp4307
(dp4308
g3856
I1
ss(g4118
g4119
tp4309
(dp4310
g401
I1
ss(g3703
g3704
tp4311
(dp4312
g3705
I1
ss(g4141
g4142
tp4313
(dp4314
g4143
I1
ss(g3923
g3924
tp4315
(dp4316
g3925
I1
ss(g3704
g3705
tp4317
(dp4318
g3706
I1
ss(g3724
g3725
tp4319
(dp4320
g3726
I1
ss(g3630
g3631
tp4321
(dp4322
g3648
I1
sg3662
I1
sg3632
I1
sg3677
I1
sg3640
I1
sg3899
I2
ss(g3866
g3867
tp4323
(dp4324
g3868
I1
ss(g3947
g3948
tp4325
(dp4326
g3949
I1
ss(g4069
g4070
tp4327
(dp4328
g401
I1
ss(g3574
g3575
tp4329
(dp4330
g3576
I2
sg3587
I2
ss(g3621
g3622
tp4331
(dp4332
g3623
I1
ss(g3738
g3739
tp4333
(dp4334
g401
I1
ss(g3512
g3513
tp4335
(dp4336
g3514
I1
ss(g3578
g3579
tp4337
(dp4338
g3580
I1
ss(g3960
g3961
tp4339
(dp4340
g3962
I1
ss(g4133
g4134
tp4341
(dp4342
g4135
I1
ss(g350
g3659
tp4343
(dp4344
g3660
I1
ss(g4028
g4029
tp4345
(dp4346
g4030
I1
ss(g4114
g4115
tp4347
(dp4348
g4116
I1
ss(g4019
g4020
tp4349
(dp4350
g4021
I1
ss(g3791
g3792
tp4351
(dp4352
g3793
I1
ss(g3925
g3926
tp4353
(dp4354
g3927
I1
ss(g4040
g4041
tp4355
(dp4356
g401
I2
ss(g3836
g3837
tp4357
(dp4358
g3838
I1
ss(g4080
g4081
tp4359
(dp4360
g4082
I1
ss(g3890
g3891
tp4361
(dp4362
g3892
I1
ss(g3713
g3714
tp4363
(dp4364
g401
I1
ss(g3995
g3996
tp4365
(dp4366
g3997
I1
ss(g3872
g3873
tp4367
(dp4368
g3881
I1
sg3964
I1
sg3874
I1
ss(g3554
g3555
tp4369
(dp4370
g3556
I1
ss(g4129
g4130
tp4371
(dp4372
g4131
I1
ss(g3940
g3941
tp4373
(dp4374
g3942
I1
ss(g3690
g3691
tp4375
(dp4376
g3692
I1
ss(g3571
g3572
tp4377
(dp4378
g3961
I1
sg3573
I2
ss(g3654
g3655
tp4379
(dp4380
g3656
I1
ss(g3982
g3983
tp4381
(dp4382
g3984
I1
ss(g3774
g3775
tp4383
(dp4384
g3776
I1
ss(g3622
g3623
tp4385
(dp4386
g3624
I1
ss(g3946
g3947
tp4387
(dp4388
g3948
I1
ss(g3676
g3677
tp4389
(dp4390
g3678
I1
ss(g3748
g3749
tp4391
(dp4392
g3750
I1
ss(g4136
g4137
tp4393
(dp4394
g4138
I1
ss(g3524
g3525
tp4395
(dp4396
g3526
I1
ss(g4001
g4002
tp4397
(dp4398
g4003
I1
ss(g3762
g3763
tp4399
(dp4400
g3764
I1
ss(g3880
g3881
tp4401
(dp4402
g3882
I1
ss(g3804
g3805
tp4403
(dp4404
g3806
I1
ss(g3669
g3670
tp4405
(dp4406
g3671
I1
ss(g3812
g3813
tp4407
(dp4408
g3814
I1
ss(g3799
g3800
tp4409
(dp4410
g3801
I1
ss(g3575
g3576
tp4411
(dp4412
g3577
I1
sg3621
I1
ss(g4076
g4077
tp4413
(dp4414
g4078
I1
ss(g3770
g3771
tp4415
(dp4416
g3772
I1
ss(g4111
g4112
tp4417
(dp4418
g4113
I1
ss(g3828
g3829
tp4419
(dp4420
g3830
I1
ss(g3722
g3723
tp4421
(dp4422
g3724
I1
ss(g3742
g3743
tp4423
(dp4424
g3744
I1
ss(g3868
g3869
tp4425
(dp4426
g3870
I1
ss(g3981
g3982
tp4427
(dp4428
g3983
I1
ss(g3773
g3774
tp4429
(dp4430
g3775
I1
ss(g3535
g3536
tp4431
(dp4432
g3537
I1
ss(g4009
g4010
tp4433
(dp4434
g4011
I1
ss(g3898
g3899
tp4435
(dp4436
g3914
I1
sg3900
I1
ss(g4024
g4025
tp4437
(dp4438
g4026
I1
sg4046
I1
ss(g4098
g4099
tp4439
(dp4440
g4100
I1
ss(g3545
g3546
tp4441
(dp4442
g3547
I2
ss(g3569
g3570
tp4443
(dp4444
g3571
I1
ss(g3863
g3864
tp4445
(dp4446
g3865
I1
ss(g3528
g3529
tp4447
(dp4448
g3530
I1
ss(g3889
g3890
tp4449
(dp4450
g3891
I1
ss(g3767
g3768
tp4451
(dp4452
g3769
I1
ss(g4005
g4006
tp4453
(dp4454
g4007
I1
ss(g3936
g3937
tp4455
(dp4456
g3938
I1
ss(g3980
g3981
tp4457
(dp4458
g3982
I1
ss(g3663
g3664
tp4459
(dp4460
g3665
I1
ss(g3519
g3520
tp4461
(dp4462
g3521
I1
ss(g4032
g4033
tp4463
(dp4464
g4034
I2
sg4040
I1
sg4037
I2
ss(g3597
g3598
tp4465
(dp4466
g3599
I1
ss(g3693
g3694
tp4467
(dp4468
g401
I1
ss(g3852
g3853
tp4469
(dp4470
g3854
I1
ss(g3873
g3874
tp4471
(dp4472
g3875
I1
ss(g3941
g3942
tp4473
(dp4474
g3943
I1
ss(g3579
g3580
tp4475
(dp4476
g3581
I1
ss(g3837
g3838
tp4477
(dp4478
g3839
I1
ss(g3905
g3906
tp4479
(dp4480
g3907
I2
ss(g3718
g3719
tp4481
(dp4482
g3720
I1
ss(g3764
g3765
tp4483
(dp4484
g3766
I1
ss(g3814
g3815
tp4485
(dp4486
g401
I1
ss(g3710
g3711
tp4487
(dp4488
g3712
I1
ss(g3641
g3642
tp4489
(dp4490
g3643
I1
ss(g3840
g3841
tp4491
(dp4492
g3842
I1
sg3947
I1
ss(g3999
g4000
tp4493
(dp4494
g4001
I1
ss(g3564
g3565
tp4495
(dp4496
g3566
I1
ss(g3755
g3756
tp4497
(dp4498
g401
I1
ss(g3701
g3702
tp4499
(dp4500
g3703
I1
ss(g3895
g3896
tp4501
(dp4502
g3897
I1
ss(g3907
g3908
tp4503
(dp4504
g3909
I2
ss(g3979
g3980
tp4505
(dp4506
g3981
I1
ss(g3668
g3669
tp4507
(dp4508
g3670
I1
ss(g3967
g3968
tp4509
(dp4510
g3969
I1
ss(g3761
g3762
tp4511
(dp4512
g3763
I1
ss(g3700
g3701
tp4513
(dp4514
g3702
I1
ss(g3665
g3666
tp4515
(dp4516
g3667
I1
sg3932
I1
ss(g3678
g3679
tp4517
(dp4518
g3680
I1
ss(g3899
g3900
tp4519
(dp4520
g3901
I1
ss(g3744
g3745
tp4521
(dp4522
g3746
I1
ss(g3733
g3734
tp4523
(dp4524
g401
I1
ss(g350
g4065
tp4525
(dp4526
g4066
I1
ss(g4091
g4092
tp4527
(dp4528
g401
I1
ss(g4006
g4007
tp4529
(dp4530
g4008
I1
ss(g3566
g3567
tp4531
(dp4532
g4009
I1
sg3582
I1
sg3568
I1
sg3933
I1
ss(g4037
g4038
tp4533
(dp4534
g4039
I1
sg4060
I1
ss(g3973
g3974
tp4535
(dp4536
g3975
I1
ss(g3538
g3539
tp4537
(dp4538
g3540
I1
ss(g3785
g3786
tp4539
(dp4540
g3820
I1
sg3795
I1
sg3810
I1
sg3787
I1
ss(g3803
g3804
tp4541
(dp4542
g3805
I1
ss(g4065
g4066
tp4543
(dp4544
g4067
I1
ss(g3888
g3889
tp4545
(dp4546
g3890
I1
ss(g3949
g3950
tp4547
(dp4548
g3951
I1
ss(g3806
g3807
tp4549
(dp4550
g3808
I1
ss(g3811
g3812
tp4551
(dp4552
g3813
I1
ss(g3994
g3995
tp4553
(dp4554
g3996
I1
ss(g3913
g3914
tp4555
(dp4556
g3915
I1
ss(g4034
g4035
tp4557
(dp4558
g4036
I2
ss(g3805
g3806
tp4559
(dp4560
g3807
I1
ss(g4088
g4089
tp4561
(dp4562
g4090
I1
ss(g3842
g3843
tp4563
(dp4564
g3844
I1
ss(g350
g3858
tp4565
(dp4566
g3859
I1
ss(g4105
g4106
tp4567
(dp4568
g4107
I1
ss(g3849
g3850
tp4569
(dp4570
g3851
I1
ss(g3711
g3712
tp4571
(dp4572
g3713
I1
ss(g3817
g3818
tp4573
(dp4574
g3963
I1
sg3819
I1
ss(g3807
g3808
tp4575
(dp4576
g3809
I1
ss(g3516
g3517
tp4577
(dp4578
g3518
I1
ss(g3576
g3577
tp4579
(dp4580
g3578
I1
ss(g3656
g3657
tp4581
(dp4582
g401
I1
ss(g3821
g3822
tp4583
(dp4584
g3823
I1
ss(g4090
g4091
tp4585
(dp4586
g4092
I1
ss(g4104
g4105
tp4587
(dp4588
g4106
I1
ss(g3534
g3535
tp4589
(dp4590
g3536
I1
ss(g3560
g3561
tp4591
(dp4592
g401
I1
ss(g3558
g3559
tp4593
(dp4594
g3560
I1
ss(g4010
g4011
tp4595
(dp4596
g4012
I1
ss(g3813
g3814
tp4597
(dp4598
g3815
I1
ss(g4117
g4118
tp4599
(dp4600
g4119
I1
ss(g3867
g3868
tp4601
(dp4602
g3869
I1
ss(g3685
g3686
tp4603
(dp4604
g3687
I1
ss(g3632
g3633
tp4605
(dp4606
g3634
I1
ss(g3642
g3643
tp4607
(dp4608
g3644
I1
ss(g3948
g3949
tp4609
(dp4610
g3950
I1
ss(g3513
g3514
tp4611
(dp4612
g3515
I1
ss(g3955
g3956
tp4613
(dp4614
g3957
I1
ss(g3939
g3940
tp4615
(dp4616
g3941
I1
ss(g3567
g3568
tp4617
(dp4618
g3569
I1
ss(g3615
g3616
tp4619
(dp4620
g3617
I1
ss(g4013
g4014
tp4621
(dp4622
g4015
I1
ss(g3769
g3770
tp4623
(dp4624
g3771
I1
ss(g3596
g3597
tp4625
(dp4626
g3598
I1
sg3730
I1
ss(g3712
g3713
tp4627
(dp4628
g3714
I1
ss(g3623
g3624
tp4629
(dp4630
g3625
I1
ss(g3518
g3519
tp4631
(dp4632
g3520
I1
sg3528
I1
sg3534
I1
ss(g3864
g3865
tp4633
(dp4634
g3866
I1
sg4133
I1
ss(g350
g3923
tp4635
(dp4636
g3924
I1
ss(g3874
g3875
tp4637
(dp4638
g3876
I1
sg3884
I1
ss(g350
g3741
tp4639
(dp4640
g3742
I1
ss(g3521
g3522
tp4641
(dp4642
g3523
I1
ss(g3602
g3603
tp4643
(dp4644
g3604
I1
ss(g3938
g3939
tp4645
(dp4646
g3940
I1
ss(g3974
g3975
tp4647
(dp4648
g3976
I1
ss(g3514
g3515
tp4649
(dp4650
g3516
I1
ss(g4050
g4051
tp4651
(dp4652
g4052
I1
ss(g3707
g3708
tp4653
(dp4654
g3709
I1
ss(g4122
g4123
tp4655
(dp4656
g4124
I1
ss(g3968
g3969
tp4657
(dp4658
g401
I1
ss(g4108
g4109
tp4659
(dp4660
g4110
I1
ss(g3869
g3870
tp4661
(dp4662
g3871
I1
ss(g3900
g3901
tp4663
(dp4664
g3902
I1
ss(g3835
g3836
tp4665
(dp4666
g3837
I1
ss(g3845
g3846
tp4667
(dp4668
g3847
I1
sg3852
I1
ss(g3525
g3526
tp4669
(dp4670
g3527
I2
ss(g4011
g4012
tp4671
(dp4672
g4013
I1
ss(g4099
g4100
tp4673
(dp4674
g4101
I1
ss(g3626
g3627
tp4675
(dp4676
g3628
I1
ss(g3951
g3952
tp4677
(dp4678
g3953
I1
ss(g350
g4072
tp4679
(dp4680
g4073
I1
ss(g3831
g3832
tp4681
(dp4682
g3833
I1
ss(g3958
g3959
tp4683
(dp4684
g3960
I1
ss(g3833
g3834
tp4685
(dp4686
g3835
I1
ss(g3647
g3648
tp4687
(dp4688
g3649
I1
ss(g3858
g3859
tp4689
(dp4690
g3860
I1
ss(g4072
g4073
tp4691
(dp4692
g4074
I1
ss(g3894
g3895
tp4693
(dp4694
g3896
I1
ss(g3988
g3989
tp4695
(dp4696
g3990
I1
ss(g3944
g3945
tp4697
(dp4698
g3946
I1
ss(g4100
g4101
tp4699
(dp4700
g4102
I1
ss(g4018
g4019
tp4701
(dp4702
g4020
I1
ss(g3588
g3589
tp4703
(dp4704
g3590
I1
sg3686
I1
ss(g350
g3610
tp4705
(dp4706
g3611
I1
ss(g3549
g3550
tp4707
(dp4708
g3551
I1
ss(g3644
g3645
tp4709
(dp4710
g3646
I1
ss(g3709
g3710
tp4711
(dp4712
g3711
I1
ss(g4036
g4037
tp4713
(dp4714
g4038
I2
ss(g4101
g4102
tp4715
(dp4716
g4103
I1
ss(g3787
g3788
tp4717
(dp4718
g3789
I1
ss(g3650
g3651
tp4719
(dp4720
g3652
I1
ss(g3924
g3925
tp4721
(dp4722
g3926
I1
ss(g4002
g4003
tp4723
(dp4724
g4004
I1
ss(g4060
g4061
tp4725
(dp4726
g4062
I1
ss(g3572
g3573
tp4727
(dp4728
g3574
I4
ss(g3696
g3697
tp4729
(dp4730
g3698
I1
ss(g4089
g4090
tp4731
(dp4732
g4091
I1
ss(g3577
g3578
tp4733
(dp4734
g3579
I1
ss(g3786
g3787
tp4735
(dp4736
g3788
I1
ss(g4048
g4049
tp4737
(dp4738
g4050
I1
ss(g350
g3817
tp4739
(dp4740
g3818
I1
ss(g3851
g3852
tp4741
(dp4742
g3853
I1
ss(g4083
g4084
tp4743
(dp4744
g4085
I1
ss(g3972
g3973
tp4745
(dp4746
g3974
I1
ss(g3795
g3796
tp4747
(dp4748
g3797
I1
ss(g3563
g3564
tp4749
(dp4750
g3565
I1
ss(g3750
g3751
tp4751
(dp4752
g3752
I1
ss(g4124
g4125
tp4753
(dp4754
g4126
I1
ss(g4084
g4085
tp4755
(dp4756
g4086
I1
ss(g4030
g4031
tp4757
(dp4758
g4032
I2
ss(g3883
g3884
tp4759
(dp4760
g3885
I1
ss(g3788
g3789
tp4761
(dp4762
g3790
I1
ss(g4128
g4129
tp4763
(dp4764
g4130
I1
sg4136
I1
ss(g3729
g3730
tp4765
(dp4766
g3731
I1
ss(g4017
g4018
tp4767
(dp4768
g4019
I1
ss(g3932
g3933
tp4769
(dp4770
g3934
I1
ss(g350
g3785
tp4771
(dp4772
g3786
I1
ss(g3976
g3977
tp4773
(dp4774
g3978
I1
ss(g3952
g3953
tp4775
(dp4776
g401
I1
ss(g3667
g3668
tp4777
(dp4778
g3669
I1
ss(g3698
g3699
tp4779
(dp4780
g3700
I1
ss(g3536
g3537
tp4781
(dp4782
g3538
I1
ss(g3775
g3776
tp4783
(dp4784
g3777
I1
ss(g4115
g4116
tp4785
(dp4786
g4117
I1
ss(g350
g3592
tp4787
(dp4788
g3593
I1
ss(g3737
g3738
tp4789
(dp4790
g3739
I1
ss(g3998
g3999
tp4791
(dp4792
g4000
I1
ss(g3651
g3652
tp4793
(dp4794
g3653
I1
ss(g3859
g3860
tp4795
(dp4796
g3861
I1
ss(g3556
g3557
tp4797
(dp4798
g3558
I1
ss(g3726
g3727
tp4799
(dp4800
g3728
I1
ss(g3832
g3833
tp4801
(dp4802
g3834
I1
ss(g3599
g3600
tp4803
(dp4804
g3601
I1
ss(g3853
g3854
tp4805
(dp4806
g3855
I1
ss(g3963
g3964
tp4807
(dp4808
g3965
I1
ss(g4107
g4108
tp4809
(dp4810
g4109
I1
ss(g350
g3542
tp4811
(dp4812
g3956
I1
sg3543
I1
ss(g3720
g3721
tp4813
(dp4814
g3722
I1
ss(g3884
g3885
tp4815
(dp4816
g3886
I1
ss(g3741
g3742
tp4817
(dp4818
g3743
I1
ss(g3717
g3718
tp4819
(dp4820
g3719
I1
ss(g3781
g3782
tp4821
(dp4822
g3783
I1
ss(g3527
g3528
tp4823
(dp4824
g3529
I1
ss(g3846
g3847
tp4825
(dp4826
g3848
I1
ss(g3749
g3750
tp4827
(dp4828
g3751
I1
ss(g3565
g3566
tp4829
(dp4830
g3597
I1
sg3567
I1
ss(g3598
g3599
tp4831
(dp4832
g3600
I1
ss(g3782
g3783
tp4833
(dp4834
g401
I1
ss(g3677
g3678
tp4835
(dp4836
g3679
I1
ss(g3847
g3848
tp4837
(dp4838
g3849
I1
ss(g4135
g4136
tp4839
(dp4840
g4137
I1
ss(g3730
g3731
tp4841
(dp4842
g3756
I1
sg3732
I1
sg3782
I1
ss(g4112
g4113
tp4843
(dp4844
g4114
I1
ss(g3841
g3842
tp4845
(dp4846
g3843
I1
ss(g3719
g3720
tp4847
(dp4848
g3721
I1
ss(g3957
g3958
tp4849
(dp4850
g3959
I1
ss(g350
g3630
tp4851
(dp4852
g3631
I3
sg3737
I1
ss(g4073
g4074
tp4853
(dp4854
g401
I1
ss(g3801
g3802
tp4855
(dp4856
g3803
I1
ss(g3943
g3944
tp4857
(dp4858
g3945
I1
ss(g3655
g3656
tp4859
(dp4860
g3657
I1
ss(g3530
g3531
tp4861
(dp4862
g3532
I1
ss(g3559
g3560
tp4863
(dp4864
g3561
I1
ss(g3533
g3534
tp4865
(dp4866
g3535
I1
ss(g4103
g4104
tp4867
(dp4868
g4105
I1
sg4111
I1
ss(g3870
g3871
tp4869
(dp4870
g3872
I1
ss(g3861
g3862
tp4871
(dp4872
g3863
I1
ss(g3612
g3613
tp4873
(dp4874
g3614
I1
ss(g3929
g3930
tp4875
(dp4876
g3931
I1
ss(g3702
g3703
tp4877
(dp4878
g3704
I1
ss(g4085
g4086
tp4879
(dp4880
g4087
I1
ss(g3996
g3997
tp4881
(dp4882
g3998
I1
ss(g350
g350
tp4883
(dp4884
g3592
I1
sg4072
I1
sg3888
I1
sg3758
I2
sg3785
I1
sg4065
I1
sg3659
I1
sg4094
I1
sg3610
I1
sg3799
I2
sg3858
I1
sg3542
I2
sg4023
I2
sg3716
I1
sg3971
I1
sg3511
I3
sg3741
I1
sg3563
I1
sg3817
I1
sg4076
I1
sg3630
I4
sg3923
I1
sg3696
I1
ss(g3522
g3523
tp4885
(dp4886
g3524
I1
ss(g3829
g3830
tp4887
(dp4888
g3831
I1
sg3966
I1
ss(g3671
g3672
tp4889
(dp4890
g3673
I2
ss(g4025
g4026
tp4891
(dp4892
g4027
I1
ss(g3544
g3545
tp4893
(dp4894
g3546
I1
ss(g3928
g3929
tp4895
(dp4896
g3930
I1
ss(g3916
g3917
tp4897
(dp4898
g3918
I1
ss(g3937
g3938
tp4899
(dp4900
g3939
I1
ss(g4095
g4096
tp4901
(dp4902
g4097
I1
ss(g3721
g3722
tp4903
(dp4904
g3723
I1
ss(g3745
g3746
tp4905
(dp4906
g3747
I1
ss(g3648
g3649
tp4907
(dp4908
g3650
I1
ss(g3860
g3861
tp4909
(dp4910
g3862
I1
ss(g3594
g3595
tp4911
(dp4912
g3596
I1
ss(g3659
g3660
tp4913
(dp4914
g3661
I2
ss(g3649
g3650
tp4915
(dp4916
g3651
I1
ss(g3603
g3604
tp4917
(dp4918
g4096
I1
sg3605
I1
ss(g3633
g3634
tp4919
(dp4920
g3635
I1
ss(g3844
g3845
tp4921
(dp4922
g3846
I1
ss(g3586
g3587
tp4923
(dp4924
g3588
I2
ss(g3589
g3590
tp4925
(dp4926
g401
I1
ss(g3743
g3744
tp4927
(dp4928
g3745
I1
ss(g3511
g3512
tp4929
(dp4930
g3513
I1
ss(g3643
g3644
tp4931
(dp4932
g3645
I1
ss(g3548
g3549
tp4933
(dp4934
g3550
I1
sg3555
I1
ss(g4000
g4001
tp4935
(dp4936
g4002
I1
ss(g350
g3716
tp4937
(dp4938
g3717
I1
ss(g3517
g3518
tp4939
(dp4940
g3519
I1
ss(g3997
g3998
tp4941
(dp4942
g3999
I1
ss(g350
g4094
tp4943
(dp4944
g4095
I1
ss(g3593
g3594
tp4945
(dp4946
g3595
I1
ss(g4067
g4068
tp4947
(dp4948
g4069
I1
ss(g3620
g3621
tp4949
(dp4950
g3622
I1
ss(g4077
g4078
tp4951
(dp4952
g4079
I1
ss(g3891
g3892
tp4953
(dp4954
g3893
I1
ss(g3699
g3700
tp4955
(dp4956
g3701
I1
ss(g3768
g3769
tp4957
(dp4958
g3770
I1
ss(g3914
g3915
tp4959
(dp4960
g3916
I1
ss(g3792
g3793
tp4961
(dp4962
g3794
I1
ss(g3772
g3773
tp4963
(dp4964
g3774
I1
ss(g3746
g3747
tp4965
(dp4966
g3748
I1
ss(g4031
g4032
tp4967
(dp4968
g4033
I2
ss(g4033
g4034
tp4969
(dp4970
g4035
I2
ss(g3909
g3910
tp4971
(dp4972
g4061
I1
sg3911
I1
ss(g3810
g3811
tp4973
(dp4974
g3812
I1
ss(g3771
g3772
tp4975
(dp4976
g3773
I1
ss(g4096
g4097
tp4977
(dp4978
g4098
I1
ss(g4045
g4046
tp4979
(dp4980
g4047
I1
ss(g350
g3758
tp4981
(dp4982
g3759
I2
ss(g4008
g4009
tp4983
(dp4984
g4010
I1
ss(g3550
g3551
tp4985
(dp4986
g3552
I1
ss(g4049
g4050
tp4987
(dp4988
g4051
I1
ss(g4003
g4004
tp4989
(dp4990
g4123
I1
sg4005
I1
ss(g3950
g3951
tp4991
(dp4992
g3952
I1
ss(g3706
g3707
tp4993
(dp4994
g3708
I1
ss(g4126
g4127
tp4995
(dp4996
g4128
I1
ss(g4132
g4133
tp4997
(dp4998
g4134
I1
ss(g3977
g3978
tp4999
(dp5000
g3979
I1
ss(g4029
g4030
tp5001
(dp5002
g4031
I1
ss(g4066
g4067
tp5003
(dp5004
g4068
I1
ss(g3542
g3543
tp5005
(dp5006
g3544
I1
ss(g4110
g4111
tp5007
(dp5008
g4112
I1
ss(g4020
g4021
tp5009
(dp5010
g401
I1
ss(g4106
g4107
tp5011
(dp5012
g4108
I1
ss(g3515
g3516
tp5013
(dp5014
g3517
I1
ss(g4130
g4131
tp5015
(dp5016
g4132
I1
ss(g4125
g4126
tp5017
(dp5018
g4127
I1
ss(g4012
g4013
tp5019
(dp5020
g4014
I1
ss(g4082
g4083
tp5021
(dp5022
g4084
I1
ss(g3624
g3625
tp5023
(dp5024
g3626
I1
ss(g3645
g3646
tp5025
(dp5026
g3647
I2
ss(g350
g3511
tp5027
(dp5028
g3879
I1
sg3512
I1
sg4122
I1
ss(g4027
g4028
tp5029
(dp5030
g4029
I1
ss(g3581
g3582
tp5031
(dp5032
g3583
I1
ss(g3763
g3764
tp5033
(dp5034
g3765
I1
sg3935
I1
ss(g3697
g3698
tp5035
(dp5036
g3699
I1
ss(g3555
g3556
tp5037
(dp5038
g3557
I1
ss(g3687
g3688
tp5039
(dp5040
g3689
I1
ss(g3819
g3820
tp5041
(dp5042
g3821
I1
ss(g3794
g3795
tp5043
(dp5044
g3796
I1
ss(g3568
g3569
tp5045
(dp5046
g4016
I1
sg3570
I1
ss(g3789
g3790
tp5047
(dp5048
g3791
I1
ss(g3727
g3728
tp5049
(dp5050
g3729
I1
ss(g3983
g3984
tp5051
(dp5052
g3985
I1
ss(g350
g3696
tp5053
(dp5054
g3697
I1
ss(g4137
g4138
tp5055
(dp5056
g4139
I1
ss(g3670
g3671
tp5057
(dp5058
g3672
I1
ss(g3984
g3985
tp5059
(dp5060
g3986
I1
ss(g3587
g3588
tp5061
(dp5062
g3589
I2
ss(g3751
g3752
tp5063
(dp5064
g3753
I1
ss(g3834
g3835
tp5065
(dp5066
g3836
I1
ss(g3705
g3706
tp5067
(dp5068
g3707
I1
ss(g3600
g3601
tp5069
(dp5070
g3602
I1
ss(g4026
g4027
tp5071
(dp5072
g4028
I1
ss(g3606
g3607
tp5073
(dp5074
g3710
I1
sg3608
I1
sg3988
I1
ss(g3777
g3778
tp5075
(dp5076
g3779
I1
ss(g3978
g3979
tp5077
(dp5078
g3980
I1
ss(g3573
g3574
tp5079
(dp5080
g3575
I4
ss(g3610
g3611
tp5081
(dp5082
g3612
I1
ss(g3766
g3767
tp5083
(dp5084
g3768
I1
ss(g3987
g3988
tp5085
(dp5086
g3989
I1
ss(g350
g3971
tp5087
(dp5088
g3972
I1
ss(g3716
g3717
tp5089
(dp5090
g3718
I1
ss(g4140
g4141
tp5091
(dp5092
g4142
I1
ss(g3790
g3791
tp5093
(dp5094
g3792
I1
ss(g4138
g4139
tp5095
(dp5096
g4140
I1
ss(g3760
g3761
tp5097
(dp5098
g3762
I1
ss(g3843
g3844
tp5099
(dp5100
g3845
I1
ss(g3692
g3693
tp5101
(dp5102
g3694
I1
ss(g3838
g3839
tp5103
(dp5104
g3840
I1
ss(g350
g4076
tp5105
(dp5106
g4077
I1
ss(g3607
g3608
tp5107
(dp5108
g401
I1
ss(g3759
g3760
tp5109
(dp5110
g3761
I1
ss(g3625
g3626
tp5111
(dp5112
g3627
I1
ss(g4116
g4117
tp5113
(dp5114
g4118
I1
ss(g3776
g3777
tp5115
(dp5116
g3778
I1
ss(g350
g4023
tp5117
(dp5118
g4024
I2
ss(g3613
g3614
tp5119
(dp5120
g3615
I1
ss(g3827
g3828
tp5121
(dp5122
g3829
I1
ss(g3691
g3692
tp5123
(dp5124
g3693
I1
ss(g3753
g3754
tp5125
(dp5126
g3755
I1
sg3987
I1
ss(g4015
g4016
tp5127
(dp5128
g4017
I1
ss(g4039
g4040
tp5129
(dp5130
g4041
I2
ss(g3796
g3797
tp5131
(dp5132
g401
I1
ss(g3611
g3612
tp5133
(dp5134
g3613
I1
ss(g350
g3888
tp5135
(dp5136
g3889
I1
ss(g4004
g4005
tp5137
(dp5138
g4006
I1
ss(g4023
g4024
tp5139
(dp5140
g4025
I2
ss(g3547
g3548
tp5141
(dp5142
g3549
I1
ss(g3662
g3663
tp5143
(dp5144
g3664
I1
ss(g3848
g3849
tp5145
(dp5146
g3850
I1
ss(g4123
g4124
tp5147
(dp5148
g4125
I1
ss(g3652
g3653
tp5149
(dp5150
g3654
I1
ss(g3971
g3972
tp5151
(dp5152
g3973
I1
ss(g3635
g3636
tp5153
(dp5154
g401
I1
ss(g4046
g4047
tp5155
(dp5156
g4048
I1
ss(g3592
g3593
tp5157
(dp5158
g3594
I1
ss(g3604
g3605
tp5159
(dp5160
g3606
I1
ss(g4097
g4098
tp5161
(dp5162
g4099
I1
ss(g3871
g3872
tp5163
(dp5164
g3873
I2
ss(g3537
g3538
tp5165
(dp5166
g3539
I1
ss(g3736
g3737
tp5167
(dp5168
g3738
I1
sssg768
(g3592
g4072
g3888
g3758
g3785
g4065
g3659
g4094
g3610
g3799
g3858
g3542
g4023
g3716
g3971
g3511
g3741
g3563
g3817
g4076
g3630
g3923
g3696
tp5169
sg770
(lp5170
I1
aI2
aI3
aI5
aI6
aI7
aI8
aI9
aI10
aI12
aI13
aI15
aI17
aI18
aI19
aI22
aI23
aI24
aI25
aI26
aI30
aI31
aI32
asg772
I2
sbsg772
I2
sbag1
(g2
g3
Ntp5171
Rp5172
(dp5173
g7
I01
sg8
Vthey want to drag humanity back to an age of unquestioning dogma and unrelenting conflict . who among you would feel safe in the middle east ? who would be safe in europe ? who would be safe in america ? who would be safe anywhere ? there are those who believe that a nuclear - armed iran can be deterred like the soviet union . militant jihadists behave very differently from secular marxists . there were no soviet suicide bombers . yet iran produces hordes of them . deterrence worked with the soviets , because every time the soviets faced a choice between their ideology and their survival , they chose their survival . but deterrence may not work with the iranians once they get nuclear weapons . shockingly , some people have begun to peddle the absurd notion that a nuclear - armed iran would actually stabilize the middle east . for iran , amassing enough enriched uranium is far more difficult than producing the nuclear fuse . let me show you . i brought a diagram for you . here \u2019s the diagram . before iran completes the second stage of nuclear enrichment necessary to make a bomb . do we want to risk the security of the world on the assumption that we would find in time a small workshop in a country half the size of europe ? two days ago , from this podium , president obama reiterated that the threat of a nuclear - armed iran can not be contained . these are the timeless values of my people and these are the jewish people \u2019s greatest gift to mankind . are we to believe that rouhani , the national security adviser of iran at the time , knew nothing about these attacks ? distinguished delegates , distinguished delegates from so many lands , wow , sustained applause for the prime minister of israel in the general assembly ? the change may be coming sooner than i thought . now here \u2019s the tragedy , because , see , the palestinians are not only trapped in the past , their leaders are poisoning the future . this is child abuse .
p5174
sg10
(lp5175
(lp5176
Vthey::
p5177
aVwant::
p5178
aVto::
p5179
aVdrag::
p5180
aVhumanity::
p5181
aVback::
p5182
aVto::
p5183
aVan::
p5184
aVage::
p5185
aVof::
p5186
aVunquestioning::
p5187
aVdogma::
p5188
aVand::
p5189
aVunrelenting::
p5190
aVconflict::
p5191
aV.::
p5192
aa(lp5193
Vwho::
p5194
aVamong::
p5195
aVyou::
p5196
aVwould::
p5197
aVfeel::
p5198
aVsafe::
p5199
aVin::
p5200
aVthe::
p5201
aVmiddle::
p5202
aVeast::
p5203
aV?::
p5204
aVwho::
p5205
aVwould::
p5206
aVbe::
p5207
aVsafe::
p5208
aVin::
p5209
aVeurope::
p5210
aV?::
p5211
aVwho::
p5212
aVwould::
p5213
aVbe::
p5214
aVsafe::
p5215
aVin::
p5216
aVamerica::
p5217
aV?::
p5218
aVwho::
p5219
aVwould::
p5220
aVbe::
p5221
aVsafe::
p5222
aVanywhere::
p5223
aV?::
p5224
aa(lp5225
Vthere::
p5226
aVare::
p5227
aVthose::
p5228
aVwho::
p5229
aVbelieve::
p5230
aVthat::
p5231
aVa::
p5232
aVnuclear::
p5233
aV-::
p5234
aVarmed::
p5235
aViran::
p5236
aVcan::
p5237
aVbe::
p5238
aVdeterred::
p5239
aVlike::
p5240
aVthe::
p5241
aVsoviet::
p5242
aVunion::
p5243
aV.::
p5244
aa(lp5245
Vmilitant::
p5246
aVjihadists::
p5247
aVbehave::
p5248
aVvery::
p5249
aVdifferently::
p5250
aVfrom::
p5251
aVsecular::
p5252
aVmarxists::
p5253
aV.::
p5254
aVthere::
p5255
aVwere::
p5256
aVno::
p5257
aVsoviet::
p5258
aVsuicide::
p5259
aVbombers::
p5260
aV.::
p5261
aVyet::
p5262
aViran::
p5263
aVproduces::
p5264
aVhordes::
p5265
aVof::
p5266
aVthem::
p5267
aV.::
p5268
aa(lp5269
Vdeterrence::
p5270
aVworked::
p5271
aVwith::
p5272
aVthe::
p5273
aVsoviets::
p5274
aV,::
p5275
aVbecause::
p5276
aVevery::
p5277
aVtime::
p5278
aVthe::
p5279
aVsoviets::
p5280
aVfaced::
p5281
aVa::
p5282
aVchoice::
p5283
aVbetween::
p5284
aVtheir::
p5285
aVideology::
p5286
aVand::
p5287
aVtheir::
p5288
aVsurvival::
p5289
aV,::
p5290
aVthey::
p5291
aVchose::
p5292
aVtheir::
p5293
aVsurvival::
p5294
aV.::
p5295
aa(lp5296
Vbut::
p5297
aVdeterrence::
p5298
aVmay::
p5299
aVnot::
p5300
aVwork::
p5301
aVwith::
p5302
aVthe::
p5303
aViranians::
p5304
aVonce::
p5305
aVthey::
p5306
aVget::
p5307
aVnuclear::
p5308
aVweapons::
p5309
aV.::
p5310
aa(lp5311
Vshockingly::
p5312
aV,::
p5313
aVsome::
p5314
aVpeople::
p5315
aVhave::
p5316
aVbegun::
p5317
aVto::
p5318
aVpeddle::
p5319
aVthe::
p5320
aVabsurd::
p5321
aVnotion::
p5322
aVthat::
p5323
aVa::
p5324
aVnuclear::
p5325
aV-::
p5326
aVarmed::
p5327
aViran::
p5328
aVwould::
p5329
aVactually::
p5330
aVstabilize::
p5331
aVthe::
p5332
aVmiddle::
p5333
aVeast::
p5334
aV.::
p5335
aa(lp5336
Vfor::
p5337
aViran::
p5338
aV,::
p5339
aVamassing::
p5340
aVenough::
p5341
aVenriched::
p5342
aVuranium::
p5343
aVis::
p5344
aVfar::
p5345
aVmore::
p5346
aVdifficult::
p5347
aVthan::
p5348
aVproducing::
p5349
aVthe::
p5350
aVnuclear::
p5351
aVfuse::
p5352
aV.::
p5353
aa(lp5354
Vlet::
p5355
aVme::
p5356
aVshow::
p5357
aVyou::
p5358
aV.::
p5359
aVi::
p5360
aVbrought::
p5361
aVa::
p5362
aVdiagram::
p5363
aVfor::
p5364
aVyou::
p5365
aV.::
p5366
aVhere::
p5367
aV\u2019s::
p5368
aVthe::
p5369
aVdiagram::
p5370
aV.::
p5371
aa(lp5372
Vbefore::
p5373
aViran::
p5374
aVcompletes::
p5375
aVthe::
p5376
aVsecond::
p5377
aVstage::
p5378
aVof::
p5379
aVnuclear::
p5380
aVenrichment::
p5381
aVnecessary::
p5382
aVto::
p5383
aVmake::
p5384
aVa::
p5385
aVbomb::
p5386
aV.::
p5387
aa(lp5388
Vdo::
p5389
aVwe::
p5390
aVwant::
p5391
aVto::
p5392
aVrisk::
p5393
aVthe::
p5394
aVsecurity::
p5395
aVof::
p5396
aVthe::
p5397
aVworld::
p5398
aVon::
p5399
aVthe::
p5400
aVassumption::
p5401
aVthat::
p5402
aVwe::
p5403
aVwould::
p5404
aVfind::
p5405
aVin::
p5406
aVtime::
p5407
aVa::
p5408
aVsmall::
p5409
aVworkshop::
p5410
aVin::
p5411
aVa::
p5412
aVcountry::
p5413
aVhalf::
p5414
aVthe::
p5415
aVsize::
p5416
aVof::
p5417
aVeurope::
p5418
aV?::
p5419
aa(lp5420
Vtwo::
p5421
aVdays::
p5422
aVago::
p5423
aV,::
p5424
aVfrom::
p5425
aVthis::
p5426
aVpodium::
p5427
aV,::
p5428
aVpresident::
p5429
aVobama::
p5430
aVreiterated::
p5431
aVthat::
p5432
aVthe::
p5433
aVthreat::
p5434
aVof::
p5435
aVa::
p5436
aVnuclear::
p5437
aV-::
p5438
aVarmed::
p5439
aViran::
p5440
aVcan::VERB
p5441
aVnot::ADV
p5442
aVbe::
p5443
aVcontained::
p5444
aV.::
p5445
aa(lp5446
Vthese::
p5447
aVare::
p5448
aVthe::
p5449
aVtimeless::
p5450
aVvalues::
p5451
aVof::
p5452
aVmy::
p5453
aVpeople::
p5454
aVand::
p5455
aVthese::
p5456
aVare::
p5457
aVthe::
p5458
aVjewish::
p5459
aVpeople::
p5460
aV\u2019s::
p5461
aVgreatest::
p5462
aVgift::
p5463
aVto::
p5464
aVmankind::
p5465
aV.::
p5466
aa(lp5467
Vare::
p5468
aVwe::
p5469
aVto::
p5470
aVbelieve::
p5471
aVthat::
p5472
aVrouhani::
p5473
aV,::
p5474
aVthe::
p5475
aVnational::
p5476
aVsecurity::
p5477
aVadviser::
p5478
aVof::
p5479
aViran::
p5480
aVat::
p5481
aVthe::
p5482
aVtime::
p5483
aV,::
p5484
aVknew::
p5485
aVnothing::
p5486
aVabout::
p5487
aVthese::
p5488
aVattacks::
p5489
aV?::
p5490
aa(lp5491
Vdistinguished::
p5492
aVdelegates::
p5493
aV,::
p5494
aa(lp5495
Vdistinguished::
p5496
aVdelegates::
p5497
aVfrom::
p5498
aVso::
p5499
aVmany::
p5500
aVlands::
p5501
aV,::
p5502
aa(lp5503
Vwow::
p5504
aV,::
p5505
aVsustained::
p5506
aVapplause::
p5507
aVfor::
p5508
aVthe::
p5509
aVprime::
p5510
aVminister::
p5511
aVof::
p5512
aVisrael::
p5513
aVin::
p5514
aVthe::
p5515
aVgeneral::
p5516
aVassembly::
p5517
aV?::
p5518
aVthe::
p5519
aVchange::
p5520
aVmay::
p5521
aVbe::
p5522
aVcoming::
p5523
aVsooner::
p5524
aVthan::
p5525
aVi::
p5526
aVthought::
p5527
aV.::
p5528
aa(lp5529
Vnow::
p5530
aVhere::
p5531
aV\u2019s::
p5532
aVthe::
p5533
aVtragedy::
p5534
aV,::
p5535
aVbecause::
p5536
aV,::
p5537
aVsee::
p5538
aV,::
p5539
aVthe::
p5540
aVpalestinians::
p5541
aVare::
p5542
aVnot::
p5543
aVonly::
p5544
aVtrapped::
p5545
aVin::
p5546
aVthe::
p5547
aVpast::
p5548
aV,::
p5549
aVtheir::
p5550
aVleaders::
p5551
aVare::
p5552
aVpoisoning::
p5553
aVthe::
p5554
aVfuture::
p5555
aV.::
p5556
aa(lp5557
Vthis::
p5558
aVis::
p5559
aVchild::
p5560
aVabuse::
p5561
aV.::
p5562
aasg287
g1
(g288
g3
Ntp5563
Rp5564
(dp5565
g292
(dp5566
(g5248
g5249
tp5567
(dp5568
g5250
I1
ss(g5298
g5299
tp5569
(dp5570
g5300
I1
ss(g5510
g5511
tp5571
(dp5572
g5512
I1
ss(g5242
g5243
tp5573
(dp5574
g5244
I1
ss(g5301
g5302
tp5575
(dp5576
g5303
I1
ss(g5189
g5190
tp5577
(dp5578
g5191
I1
ss(g5230
g5231
tp5579
(dp5580
g5232
I1
sg5473
I1
ss(g5328
g5329
tp5581
(dp5582
g5330
I1
ss(g5330
g5331
tp5583
(dp5584
g5332
I1
ss(g5183
g5184
tp5585
(dp5586
g5185
I1
ss(g5292
g5293
tp5587
(dp5588
g5294
I1
ss(g5177
g5178
tp5589
(dp5590
g5179
I1
ss(g5249
g5250
tp5591
(dp5592
g5251
I1
ss(g5386
g5387
tp5593
(dp5594
g401
I1
ss(g5319
g5320
tp5595
(dp5596
g5321
I1
ss(g5393
g5394
tp5597
(dp5598
g5395
I1
ss(g5460
g5461
tp5599
(dp5600
g5462
I1
ss(g5350
g5351
tp5601
(dp5602
g5352
I1
ss(g5349
g5350
tp5603
(dp5604
g5351
I1
ss(g5356
g5357
tp5605
(dp5606
g5358
I1
ss(g5390
g5391
tp5607
(dp5608
g5392
I1
ss(g5505
g5506
tp5609
(dp5610
g5507
I1
ss(g5461
g5462
tp5611
(dp5612
g5463
I1
ss(g5463
g5464
tp5613
(dp5614
g5465
I1
ss(g5500
g5501
tp5615
(dp5616
g5502
I1
ss(g5348
g5349
tp5617
(dp5618
g5350
I1
ss(g5367
g5368
tp5619
(dp5620
g5369
I2
ss(g350
g5530
tp5621
(dp5622
g5531
I1
ss(g5408
g5409
tp5623
(dp5624
g5410
I1
ss(g5544
g5545
tp5625
(dp5626
g5546
I1
ss(g5285
g5286
tp5627
(dp5628
g5287
I1
ss(g5196
g5197
tp5629
(dp5630
g5198
I1
ss(g5352
g5353
tp5631
(dp5632
g401
I1
ss(g5459
g5460
tp5633
(dp5634
g5461
I1
ss(g5347
g5348
tp5635
(dp5636
g5349
I1
ss(g350
g5226
tp5637
(dp5638
g5227
I1
ss(g5478
g5479
tp5639
(dp5640
g5480
I1
ss(g5453
g5454
tp5641
(dp5642
g5455
I1
ss(g5358
g5359
tp5643
(dp5644
g5367
I1
sg5360
I1
ss(g5452
g5453
tp5645
(dp5646
g5454
I1
ss(g5236
g5237
tp5647
(dp5648
g5238
I1
ss(g5411
g5412
tp5649
(dp5650
g5413
I1
ss(g5291
g5292
tp5651
(dp5652
g5293
I1
ss(g5273
g5274
tp5653
(dp5654
g5281
I1
sg5275
I1
ss(g5468
g5469
tp5655
(dp5656
g5470
I1
ss(g5320
g5321
tp5657
(dp5658
g5322
I1
ss(g5376
g5377
tp5659
(dp5660
g5378
I1
ss(g5524
g5525
tp5661
(dp5662
g5526
I1
ss(g350
g5492
tp5663
(dp5664
g5493
I2
ss(g5473
g5474
tp5665
(dp5666
g5475
I1
ss(g5217
g5218
tp5667
(dp5668
g5219
I1
ss(g5400
g5401
tp5669
(dp5670
g5402
I1
ss(g5344
g5345
tp5671
(dp5672
g5346
I1
ss(g5185
g5186
tp5673
(dp5674
g5187
I1
ss(g5484
g5485
tp5675
(dp5676
g5486
I1
ss(g350
g5373
tp5677
(dp5678
g5374
I1
ss(g5190
g5191
tp5679
(dp5680
g5192
I1
ss(g5385
g5386
tp5681
(dp5682
g5387
I1
ss(g5342
g5343
tp5683
(dp5684
g5344
I1
ss(g5187
g5188
tp5685
(dp5686
g5189
I1
ss(g5314
g5315
tp5687
(dp5688
g5316
I1
ss(g5487
g5488
tp5689
(dp5690
g5489
I1
ss(g5290
g5291
tp5691
(dp5692
g5292
I1
ss(g5304
g5305
tp5693
(dp5694
g5306
I1
ss(g5360
g5361
tp5695
(dp5696
g5362
I1
ss(g5232
g5233
tp5697
(dp5698
g5234
I3
ss(g5274
g5275
tp5699
(dp5700
g5276
I1
ss(g5209
g5210
tp5701
(dp5702
g5211
I1
ss(g350
g5447
tp5703
(dp5704
g5448
I1
ss(g5451
g5452
tp5705
(dp5706
g5453
I1
ss(g5464
g5465
tp5707
(dp5708
g5466
I1
ss(g5378
g5379
tp5709
(dp5710
g5380
I1
ss(g5252
g5253
tp5711
(dp5712
g5254
I1
ss(g5366
g5367
tp5713
(dp5714
g5368
I1
ss(g5493
g5494
tp5715
(dp5716
g401
I1
ss(g5379
g5380
tp5717
(dp5718
g5381
I1
ss(g5416
g5417
tp5719
(dp5720
g5418
I1
ss(g5271
g5272
tp5721
(dp5722
g5273
I1
ss(g5345
g5346
tp5723
(dp5724
g5347
I1
ss(g350
g5177
tp5725
(dp5726
g5178
I1
ss(g5359
g5360
tp5727
(dp5728
g5361
I1
ss(g5497
g5498
tp5729
(dp5730
g5499
I1
ss(g5552
g5553
tp5731
(dp5732
g5554
I1
ss(g5267
g5268
tp5733
(dp5734
g401
I1
ss(g5428
g5429
tp5735
(dp5736
g5430
I1
ss(g5303
g5304
tp5737
(dp5738
g5305
I1
ss(g5543
g5544
tp5739
(dp5740
g5545
I1
ss(g350
g5337
tp5741
(dp5742
g5338
I1
ss(g5272
g5273
tp5743
(dp5744
g5304
I1
sg5274
I1
ss(g5207
g5208
tp5745
(dp5746
g5209
I2
sg5223
I1
ss(g5373
g5374
tp5747
(dp5748
g5375
I1
ss(g5526
g5527
tp5749
(dp5750
g5528
I1
ss(g5277
g5278
tp5751
(dp5752
g5279
I1
ss(g5343
g5344
tp5753
(dp5754
g5345
I1
ss(g5548
g5549
tp5755
(dp5756
g5550
I1
ss(g5530
g5531
tp5757
(dp5758
g5532
I1
ss(g5275
g5276
tp5759
(dp5760
g5537
I1
sg5277
I1
ss(g350
g5246
tp5761
(dp5762
g5247
I1
ss(g5422
g5423
tp5763
(dp5764
g5424
I1
ss(g5470
g5471
tp5765
(dp5766
g5472
I1
ss(g5377
g5378
tp5767
(dp5768
g5379
I1
ss(g5458
g5459
tp5769
(dp5770
g5460
I1
ss(g5199
g5200
tp5771
(dp5772
g5217
I1
sg5210
I1
sg5201
I1
ss(g5523
g5524
tp5773
(dp5774
g5525
I1
ss(g5281
g5282
tp5775
(dp5776
g5283
I1
ss(g5450
g5451
tp5777
(dp5778
g5452
I1
ss(g5426
g5427
tp5779
(dp5780
g5428
I1
ss(g5282
g5283
tp5781
(dp5782
g5284
I1
ss(g5423
g5424
tp5783
(dp5784
g5425
I1
ss(g5425
g5426
tp5785
(dp5786
g5427
I1
ss(g5361
g5362
tp5787
(dp5788
g5363
I1
ss(g5289
g5290
tp5789
(dp5790
g5291
I1
ss(g5483
g5484
tp5791
(dp5792
g5485
I1
ss(g5240
g5241
tp5793
(dp5794
g5242
I1
ss(g5488
g5489
tp5795
(dp5796
g5490
I1
ss(g5398
g5399
tp5797
(dp5798
g5400
I1
ss(g5549
g5550
tp5799
(dp5800
g5551
I1
ss(g5317
g5318
tp5801
(dp5802
g5319
I1
ss(g5339
g5340
tp5803
(dp5804
g5341
I1
ss(g5401
g5402
tp5805
(dp5806
g5403
I1
ss(g5299
g5300
tp5807
(dp5808
g5301
I1
ss(g5399
g5400
tp5809
(dp5810
g5401
I1
ss(g5485
g5486
tp5811
(dp5812
g5487
I1
ss(g5284
g5285
tp5813
(dp5814
g5286
I1
ss(g5297
g5298
tp5815
(dp5816
g5299
I1
ss(g5210
g5211
tp5817
(dp5818
g5212
I1
sg401
I1
ss(g5251
g5252
tp5819
(dp5820
g5253
I1
ss(g5441
g5442
tp5821
(dp5822
g5443
I1
ss(g5521
g5522
tp5823
(dp5824
g5523
I1
ss(g5216
g5217
tp5825
(dp5826
g5218
I1
ss(g5200
g5201
tp5827
(dp5828
g5516
I1
sg5548
I1
sg5202
I1
ss(g5431
g5432
tp5829
(dp5830
g5433
I1
ss(g5474
g5475
tp5831
(dp5832
g5541
I1
sg5476
I1
ss(g5397
g5398
tp5833
(dp5834
g5399
I1
ss(g5508
g5509
tp5835
(dp5836
g5510
I1
ss(g5243
g5244
tp5837
(dp5838
g401
I1
ss(g5547
g5548
tp5839
(dp5840
g5549
I1
ss(g5553
g5554
tp5841
(dp5842
g5555
I1
ss(g5509
g5510
tp5843
(dp5844
g5511
I1
ss(g5206
g5207
tp5845
(dp5846
g5208
I3
ss(g5306
g5307
tp5847
(dp5848
g5308
I1
ss(g5560
g5561
tp5849
(dp5850
g5562
I1
ss(g5205
g5206
tp5851
(dp5852
g5207
I3
ss(g5368
g5369
tp5853
(dp5854
g5370
I1
sg5534
I1
ss(g5444
g5445
tp5855
(dp5856
g401
I1
ss(g5540
g5541
tp5857
(dp5858
g5542
I1
ss(g5499
g5500
tp5859
(dp5860
g5501
I1
ss(g5204
g5205
tp5861
(dp5862
g5206
I3
ss(g5392
g5393
tp5863
(dp5864
g5394
I1
ss(g5247
g5248
tp5865
(dp5866
g5249
I1
ss(g5259
g5260
tp5867
(dp5868
g5261
I1
ss(g350
g5270
tp5869
(dp5870
g5271
I1
ss(g5507
g5508
tp5871
(dp5872
g5509
I1
ss(g5380
g5381
tp5873
(dp5874
g5382
I1
ss(g5351
g5352
tp5875
(dp5876
g5353
I1
ss(g5203
g5204
tp5877
(dp5878
g5205
I1
ss(g5305
g5306
tp5879
(dp5880
g5307
I1
ss(g5432
g5433
tp5881
(dp5882
g5434
I1
ss(g5415
g5416
tp5883
(dp5884
g5417
I1
ss(g5278
g5279
tp5885
(dp5886
g5280
I1
ss(g5476
g5477
tp5887
(dp5888
g5478
I1
ss(g5435
g5436
tp5889
(dp5890
g5437
I1
ss(g5555
g5556
tp5891
(dp5892
g401
I1
ss(g350
g5504
tp5893
(dp5894
g5505
I1
ss(g5402
g5403
tp5895
(dp5896
g5404
I1
ss(g5265
g5266
tp5897
(dp5898
g5267
I1
ss(g5417
g5418
tp5899
(dp5900
g5419
I1
ss(g5522
g5523
tp5901
(dp5902
g5524
I1
ss(g5520
g5521
tp5903
(dp5904
g5522
I1
ss(g350
g5297
tp5905
(dp5906
g5298
I1
ss(g350
g5355
tp5907
(dp5908
g5356
I1
ss(g5182
g5183
tp5909
(dp5910
g5184
I1
ss(g5223
g5224
tp5911
(dp5912
g401
I1
ss(g5554
g5555
tp5913
(dp5914
g5556
I1
ss(g5283
g5284
tp5915
(dp5916
g5285
I1
ss(g5313
g5314
tp5917
(dp5918
g5315
I1
ss(g5527
g5528
tp5919
(dp5920
g401
I1
ss(g5308
g5309
tp5921
(dp5922
g5310
I1
ss(g5440
g5441
tp5923
(dp5924
g5442
I1
ss(g5191
g5192
tp5925
(dp5926
g401
I1
ss(g5434
g5435
tp5927
(dp5928
g5436
I1
ss(g5338
g5339
tp5929
(dp5930
g5340
I1
ss(g5534
g5535
tp5931
(dp5932
g5536
I1
ss(g5186
g5187
tp5933
(dp5934
g5188
I1
ss(g5537
g5538
tp5935
(dp5936
g5539
I1
ss(g5462
g5463
tp5937
(dp5938
g5464
I1
ss(g5340
g5341
tp5939
(dp5940
g5342
I1
ss(g5410
g5411
tp5941
(dp5942
g5412
I1
ss(g5486
g5487
tp5943
(dp5944
g5488
I1
ss(g5198
g5199
tp5945
(dp5946
g5200
I1
ss(g5389
g5390
tp5947
(dp5948
g5391
I1
ss(g5381
g5382
tp5949
(dp5950
g5383
I1
ss(g5288
g5289
tp5951
(dp5952
g5295
I1
sg5290
I1
ss(g5407
g5408
tp5953
(dp5954
g5409
I1
ss(g5300
g5301
tp5955
(dp5956
g5302
I1
ss(g5498
g5499
tp5957
(dp5958
g5500
I1
ss(g5255
g5256
tp5959
(dp5960
g5257
I1
ss(g5233
g5234
tp5961
(dp5962
g5235
I3
ss(g5472
g5473
tp5963
(dp5964
g5474
I1
ss(g5515
g5516
tp5965
(dp5966
g5517
I1
ss(g5533
g5534
tp5967
(dp5968
g5535
I1
ss(g5226
g5227
tp5969
(dp5970
g5228
I1
ss(g5276
g5277
tp5971
(dp5972
g5278
I1
ss(g5222
g5223
tp5973
(dp5974
g5224
I1
ss(g5541
g5542
tp5975
(dp5976
g5543
I1
ss(g5449
g5450
tp5977
(dp5978
g5451
I1
ss(g5357
g5358
tp5979
(dp5980
g5359
I1
ss(g5433
g5434
tp5981
(dp5982
g5435
I1
ss(g5454
g5455
tp5983
(dp5984
g5456
I1
ss(g5421
g5422
tp5985
(dp5986
g5423
I1
ss(g5477
g5478
tp5987
(dp5988
g5479
I1
ss(g5413
g5414
tp5989
(dp5990
g5415
I1
ss(g5382
g5383
tp5991
(dp5992
g5384
I1
ss(g5492
g5493
tp5993
(dp5994
g5498
I1
sg5494
I1
ss(g5234
g5235
tp5995
(dp5996
g5236
I3
ss(g5480
g5481
tp5997
(dp5998
g5482
I1
ss(g5414
g5415
tp5999
(dp6000
g5416
I1
ss(g5322
g5323
tp6001
(dp6002
g5324
I1
ss(g5237
g5238
tp6003
(dp6004
g5239
I1
ss(g5525
g5526
tp6005
(dp6006
g5527
I1
ss(g5405
g5406
tp6007
(dp6008
g5407
I1
ss(g5442
g5443
tp6009
(dp6010
g5444
I1
ss(g5254
g5255
tp6011
(dp6012
g5256
I1
ss(g5260
g5261
tp6013
(dp6014
g5262
I1
ss(g5262
g5263
tp6015
(dp6016
g5264
I1
ss(g5406
g5407
tp6017
(dp6018
g5408
I1
ss(g5256
g5257
tp6019
(dp6020
g5258
I1
ss(g5315
g5316
tp6021
(dp6022
g5317
I1
ss(g5231
g5232
tp6023
(dp6024
g5233
I2
ss(g5312
g5313
tp6025
(dp6026
g5314
I1
ss(g5184
g5185
tp6027
(dp6028
g5186
I1
ss(g5355
g5356
tp6029
(dp6030
g5357
I1
ss(g5559
g5560
tp6031
(dp6032
g5561
I1
ss(g350
g5421
tp6033
(dp6034
g5422
I1
ss(g5536
g5537
tp6035
(dp6036
g5538
I1
ss(g5506
g5507
tp6037
(dp6038
g5508
I1
ss(g5178
g5179
tp6039
(dp6040
g5180
I1
sg5393
I1
ss(g5346
g5347
tp6041
(dp6042
g5348
I1
ss(g5427
g5428
tp6043
(dp6044
g5429
I1
ss(g5318
g5319
tp6045
(dp6046
g5320
I1
ss(g5551
g5552
tp6047
(dp6048
g5553
I1
ss(g5270
g5271
tp6049
(dp6050
g5272
I1
ss(g5550
g5551
tp6051
(dp6052
g5552
I1
ss(g5482
g5483
tp6053
(dp6054
g5484
I1
ss(g5513
g5514
tp6055
(dp6056
g5515
I1
ss(g5448
g5449
tp6057
(dp6058
g5450
I1
sg5459
I1
ss(g5518
g5519
tp6059
(dp6060
g5520
I1
ss(g5375
g5376
tp6061
(dp6062
g5377
I1
ss(g5369
g5370
tp6063
(dp6064
g5371
I1
ss(g5194
g5195
tp6065
(dp6066
g5196
I1
ss(g5409
g5410
tp6067
(dp6068
g5411
I1
ss(g5180
g5181
tp6069
(dp6070
g5182
I1
ss(g5455
g5456
tp6071
(dp6072
g5457
I1
ss(g5321
g5322
tp6073
(dp6074
g5323
I1
ss(g5430
g5431
tp6075
(dp6076
g5432
I1
ss(g5364
g5365
tp6077
(dp6078
g5366
I1
ss(g5179
g5180
tp6079
(dp6080
g5181
I1
ss(g5384
g5385
tp6081
(dp6082
g5386
I1
ss(g5542
g5543
tp6083
(dp6084
g5544
I1
ss(g5239
g5240
tp6085
(dp6086
g5241
I1
ss(g5511
g5512
tp6087
(dp6088
g5513
I1
ss(g5202
g5203
tp6089
(dp6090
g5335
I1
sg5204
I1
ss(g5429
g5430
tp6091
(dp6092
g5431
I1
ss(g5374
g5375
tp6093
(dp6094
g5376
I1
ss(g5309
g5310
tp6095
(dp6096
g401
I1
ss(g5238
g5239
tp6097
(dp6098
g5240
I1
ss(g5228
g5229
tp6099
(dp6100
g5230
I1
ss(g350
g5389
tp6101
(dp6102
g5390
I1
ss(g5241
g5242
tp6103
(dp6104
g5243
I1
ss(g5489
g5490
tp6105
(dp6106
g401
I1
ss(g5258
g5259
tp6107
(dp6108
g5260
I1
ss(g5331
g5332
tp6109
(dp6110
g5333
I1
ss(g5412
g5413
tp6111
(dp6112
g5414
I1
ss(g5341
g5342
tp6113
(dp6114
g5343
I1
ss(g350
g5558
tp6115
(dp6116
g5559
I1
ss(g5558
g5559
tp6117
(dp6118
g5560
I1
ss(g5287
g5288
tp6119
(dp6120
g5289
I1
ss(g350
g350
tp6121
(dp6122
g5337
I1
sg5373
I1
sg5355
I1
sg5492
I2
sg5558
I1
sg5246
I1
sg5389
I1
sg5297
I1
sg5530
I1
sg5447
I1
sg5312
I1
sg5226
I1
sg5421
I1
sg5270
I1
sg5468
I1
sg5177
I1
sg5194
I1
sg5504
I1
ss(g5257
g5258
tp6123
(dp6124
g5259
I1
ss(g5229
g5230
tp6125
(dp6126
g5231
I1
ss(g5504
g5505
tp6127
(dp6128
g5506
I1
ss(g5195
g5196
tp6129
(dp6130
g5197
I1
ss(g5561
g5562
tp6131
(dp6132
g401
I1
ss(g5475
g5476
tp6133
(dp6134
g5477
I1
ss(g5517
g5518
tp6135
(dp6136
g5519
I1
ss(g5479
g5480
tp6137
(dp6138
g5481
I1
ss(g5545
g5546
tp6139
(dp6140
g5547
I1
ss(g5538
g5539
tp6141
(dp6142
g5540
I1
ss(g5263
g5264
tp6143
(dp6144
g5265
I1
ss(g5501
g5502
tp6145
(dp6146
g401
I1
ss(g5396
g5397
tp6147
(dp6148
g5398
I1
ss(g350
g5468
tp6149
(dp6150
g5469
I1
ss(g5316
g5317
tp6151
(dp6152
g5318
I1
ss(g5264
g5265
tp6153
(dp6154
g5266
I1
ss(g5394
g5395
tp6155
(dp6156
g5396
I1
ss(g5294
g5295
tp6157
(dp6158
g401
I1
ss(g5197
g5198
tp6159
(dp6160
g5199
I1
ss(g350
g5312
tp6161
(dp6162
g5313
I1
ss(g5403
g5404
tp6163
(dp6164
g5405
I1
ss(g5227
g5228
tp6165
(dp6166
g5229
I1
ss(g5280
g5281
tp6167
(dp6168
g5282
I1
ss(g5404
g5405
tp6169
(dp6170
g5406
I1
ss(g5235
g5236
tp6171
(dp6172
g5441
I1
sg5329
I1
sg5237
I1
ss(g5337
g5338
tp6173
(dp6174
g5339
I1
ss(g5469
g5470
tp6175
(dp6176
g5471
I1
ss(g5465
g5466
tp6177
(dp6178
g401
I1
ss(g5383
g5384
tp6179
(dp6180
g5385
I1
ss(g5424
g5425
tp6181
(dp6182
g5426
I1
ss(g5516
g5517
tp6183
(dp6184
g5518
I1
ss(g5307
g5308
tp6185
(dp6186
g5309
I1
ss(g5447
g5448
tp6187
(dp6188
g5449
I2
ss(g350
g5194
tp6189
(dp6190
g5195
I1
ss(g5329
g5330
tp6191
(dp6192
g5331
I1
ss(g5253
g5254
tp6193
(dp6194
g5255
I1
ss(g5201
g5202
tp6195
(dp6196
g5203
I2
ss(g5481
g5482
tp6197
(dp6198
g5483
I1
ss(g5512
g5513
tp6199
(dp6200
g5514
I1
ss(g5286
g5287
tp6201
(dp6202
g5288
I1
ss(g5334
g5335
tp6203
(dp6204
g401
I1
ss(g5362
g5363
tp6205
(dp6206
g5364
I1
ss(g5246
g5247
tp6207
(dp6208
g5248
I1
ss(g5188
g5189
tp6209
(dp6210
g5190
I1
ss(g5519
g5520
tp6211
(dp6212
g5521
I1
ss(g5443
g5444
tp6213
(dp6214
g5445
I1
ss(g5261
g5262
tp6215
(dp6216
g5263
I1
ss(g5266
g5267
tp6217
(dp6218
g5268
I1
ss(g5370
g5371
tp6219
(dp6220
g401
I1
ss(g5395
g5396
tp6221
(dp6222
g5397
I1
ss(g5181
g5182
tp6223
(dp6224
g5183
I1
ss(g5250
g5251
tp6225
(dp6226
g5252
I1
ss(g5363
g5364
tp6227
(dp6228
g5365
I1
sssg768
(g5337
g5373
g5355
g5492
g5558
g5246
g5389
g5297
g5530
g5447
g5312
g5226
g5421
g5270
g5468
g5177
g5194
g5504
tp6229
sg770
(lp6230
I1
aI2
aI3
aI5
aI6
aI7
aI8
aI9
aI10
aI11
aI12
aI13
aI14
aI15
aI16
aI17
aI18
aI19
asg772
I2
sbsg772
I2
sba.