(lp0
ccopy_reg
_reconstructor
p1
(cmarkovify.text
Text
p2
c__builtin__
object
p3
Ntp4
Rp5
(dp6
S'retain_original'
p7
I01
sS'rejoined_text'
p8
Vin israel, the past and the future find common ground. it\u2019s because israel cherishes life, that israel cherishes peace and seeks peace. i say to him and i say to you: yeah, right\u2026 that\u2019s like saying a nuclear-armed al-qaeda would usher in an era of universal peace. the simplest example is gunpowder and a fuse. that is, you light the fuse and set off the gunpowder. each day, that point is getting closer. that\u2019s why i speak today with such a sense of urgency. and that\u2019s why everyone should have a sense of urgency. what i have said today will help ensure that this common goal is achieved. israel is in discussions with the united states over this issue, and i am confident that we can chart a path forward together. let us commit ourselves today to defend these values so that we can defend our freedom and protect our common civilization. i ended that first speech by saying: gentlemen, check your fanaticism at the door. this conflict rages because for the palestinians, the real settlements they\u2019re after are haifa, jaffa and tel aviv. how can any of us expect young palestinians to support peace when their leaders poison their minds against peace? we can do this. after 70 years, the world is embracing israel, and israel is embracing the world.
p9
sS'parsed_sentences'
p10
(lp11
(lp12
Vin
p13
aVisrael,
p14
aVthe
p15
aVpast
p16
aVand
p17
aVthe
p18
aVfuture
p19
aVfind
p20
aVcommon
p21
aVground.
p22
aa(lp23
Vit\u2019s
p24
aVbecause
p25
aVisrael
p26
aVcherishes
p27
aVlife,
p28
aVthat
p29
aVisrael
p30
aVcherishes
p31
aVpeace
p32
aVand
p33
aVseeks
p34
aVpeace.
p35
aa(lp36
Vi
p37
aVsay
p38
aVto
p39
aVhim
p40
aVand
p41
ag37
aVsay
p42
aVto
p43
aVyou:
p44
aa(lp45
Vyeah,
p46
aVright\u2026
p47
aa(lp48
Vthat\u2019s
p49
aVlike
p50
aVsaying
p51
aVa
p52
aVnuclear-armed
p53
aVal-qaeda
p54
aVwould
p55
aVusher
p56
aVin
p57
aVan
p58
aVera
p59
aVof
p60
aVuniversal
p61
aVpeace.
p62
aa(lp63
Vthe
p64
aVsimplest
p65
aVexample
p66
aVis
p67
aVgunpowder
p68
aVand
p69
ag52
aVfuse.
p70
aVthat
p71
aVis,
p72
aVyou
p73
aVlight
p74
aVthe
p75
aVfuse
p76
aVand
p77
aVset
p78
aVoff
p79
aVthe
p80
aVgunpowder.
p81
aa(lp82
Veach
p83
aVday,
p84
aVthat
p85
aVpoint
p86
aVis
p87
aVgetting
p88
aVcloser.
p89
aVthat\u2019s
p90
aVwhy
p91
ag37
aVspeak
p92
aVtoday
p93
aVwith
p94
aVsuch
p95
ag52
aVsense
p96
aVof
p97
aVurgency.
p98
aVand
p99
aVthat\u2019s
p100
aVwhy
p101
aVeveryone
p102
aVshould
p103
aVhave
p104
ag52
aVsense
p105
aVof
p106
aVurgency.
p107
aa(lp108
Vwhat
p109
ag37
aVhave
p110
aVsaid
p111
aVtoday
p112
aVwill
p113
aVhelp
p114
aVensure
p115
aVthat
p116
aVthis
p117
aVcommon
p118
aVgoal
p119
aVis
p120
aVachieved.
p121
aa(lp122
Visrael
p123
aVis
p124
aVin
p125
aVdiscussions
p126
aVwith
p127
aVthe
p128
aVunited
p129
aVstates
p130
aVover
p131
aVthis
p132
aVissue,
p133
aVand
p134
ag37
aVam
p135
aVconfident
p136
aVthat
p137
aVwe
p138
aVcan
p139
aVchart
p140
ag52
aVpath
p141
aVforward
p142
aVtogether.
p143
aa(lp144
Vlet
p145
aVus
p146
aVcommit
p147
aVourselves
p148
aVtoday
p149
aVto
p150
aVdefend
p151
aVthese
p152
aVvalues
p153
aVso
p154
aVthat
p155
aVwe
p156
aVcan
p157
aVdefend
p158
aVour
p159
aVfreedom
p160
aVand
p161
aVprotect
p162
aVour
p163
aVcommon
p164
aVcivilization.
p165
aa(lp166
g37
aVended
p167
aVthat
p168
aVfirst
p169
aVspeech
p170
aVby
p171
aVsaying:
p172
aVgentlemen,
p173
aVcheck
p174
aVyour
p175
aVfanaticism
p176
aVat
p177
aVthe
p178
aVdoor.
p179
aa(lp180
Vthis
p181
aVconflict
p182
aVrages
p183
aVbecause
p184
aVfor
p185
aVthe
p186
aVpalestinians,
p187
aVthe
p188
aVreal
p189
aVsettlements
p190
aVthey\u2019re
p191
aVafter
p192
aVare
p193
aVhaifa,
p194
aVjaffa
p195
aVand
p196
aVtel
p197
aVaviv.
p198
aa(lp199
Vhow
p200
aVcan
p201
aVany
p202
aVof
p203
aVus
p204
aVexpect
p205
aVyoung
p206
aVpalestinians
p207
aVto
p208
aVsupport
p209
aVpeace
p210
aVwhen
p211
aVtheir
p212
aVleaders
p213
aVpoison
p214
aVtheir
p215
aVminds
p216
aVagainst
p217
aVpeace?
p218
aa(lp219
Vwe
p220
aVcan
p221
aVdo
p222
aVthis.
p223
aa(lp224
Vafter
p225
aV70
p226
aVyears,
p227
aVthe
p228
aVworld
p229
aVis
p230
aVembracing
p231
aVisrael,
p232
aVand
p233
aVisrael
p234
aVis
p235
aVembracing
p236
aVthe
p237
aVworld.
p238
aasS'chain'
p239
g1
(cmarkovify.chain
Chain
p240
g3
Ntp241
Rp242
(dp243
S'model'
p244
(dp245
(g225
g226
tp246
(dp247
g227
I1
ss(g190
g191
tp248
(dp249
g192
I1
ss(g25
g26
tp250
(dp251
g27
I1
ss(g17
g18
tp252
(dp253
g19
I1
ss(g91
g37
tp254
(dp255
g92
I1
ss(g109
g37
tp256
(dp257
g110
I1
ss(g28
g29
tp258
(dp259
g30
I1
ss(g114
g115
tp260
(dp261
g116
I1
ss(g184
g185
tp262
(dp263
g186
I1
ss(g67
g68
tp264
(dp265
g69
I1
ss(g49
g50
tp266
(dp267
g51
I1
ss(g177
g178
tp268
(dp269
g179
I1
ss(g14
g15
tp270
(dp271
g16
I1
ss(g150
g151
tp272
(dp273
g152
I1
ss(g128
g129
tp274
(dp275
g130
I1
ss(g38
g39
tp276
(dp277
g40
I1
sg44
I1
ss(g154
g155
tp278
(dp279
g156
I1
ss(g182
g183
tp280
(dp281
g184
I1
ss(g57
g58
tp282
(dp283
g59
I1
ss(g86
g87
tp284
(dp285
g88
I1
ss(g196
g197
tp286
(dp287
g198
I1
ss(g90
g91
tp288
(dp289
g37
I1
sg102
I1
ss(g83
g84
tp290
(dp291
g85
I1
ss(g186
g187
tp292
(dp293
g188
I1
ss(g221
g222
tp294
(dp295
g223
I1
ss(g138
g139
tp296
(dp297
g222
I1
sg158
I1
sg140
I1
ss(g89
g90
tp298
(dp299
g91
I1
ss(g117
g118
tp300
(dp301
g119
I1
ss(S'___BEGIN__'
p302
g123
tp303
(dp304
g124
I1
ss(g181
g182
tp305
(dp306
g183
I1
ss(g16
g17
tp307
(dp308
g18
I1
ss(g178
g179
tp309
(dp310
S'___END__'
p311
I1
ss(g158
g159
tp312
(dp313
g160
I1
ss(g204
g205
tp314
(dp315
g206
I1
ss(g124
g125
tp316
(dp317
g126
I1
ss(g302
g64
tp318
(dp319
g65
I1
ss(g127
g128
tp320
(dp321
g129
I1
ss(g174
g175
tp322
(dp323
g176
I1
ss(g59
g60
tp324
(dp325
g61
I1
ss(g88
g89
tp326
(dp327
g90
I1
ss(g136
g137
tp328
(dp329
g138
I1
ss(g197
g198
tp330
(dp331
g311
I1
ss(g164
g165
tp332
(dp333
g311
I1
ss(g173
g174
tp334
(dp335
g175
I1
ss(g101
g102
tp336
(dp337
g103
I1
ss(g19
g20
tp338
(dp339
g21
I1
ss(g64
g65
tp340
(dp341
g66
I1
ss(g302
g13
tp342
(dp343
g14
I1
ss(g58
g59
tp344
(dp345
g60
I1
ss(g123
g124
tp346
(dp347
g236
I1
sg125
I1
ss(g55
g56
tp348
(dp349
g57
I1
ss(g95
g52
tp350
(dp351
g96
I1
ss(g207
g208
tp352
(dp353
g209
I1
ss(g99
g100
tp354
(dp355
g101
I1
ss(g72
g73
tp356
(dp357
g74
I1
ss(g192
g193
tp358
(dp359
g194
I1
ss(g232
g233
tp360
(dp361
g234
I1
ss(g61
g62
tp362
(dp363
g311
I1
ss(g170
g171
tp364
(dp365
g172
I1
ss(g141
g142
tp366
(dp367
g143
I1
ss(g202
g203
tp368
(dp369
g204
I1
ss(g34
g35
tp370
(dp371
g311
I1
ss(g152
g153
tp372
(dp373
g154
I1
ss(g217
g218
tp374
(dp375
g311
I1
ss(g149
g150
tp376
(dp377
g151
I1
ss(g157
g158
tp378
(dp379
g159
I1
ss(g140
g52
tp380
(dp381
g141
I1
ss(g68
g69
tp382
(dp383
g52
I1
ss(g230
g231
tp384
(dp385
g237
I1
sg232
I1
ss(g33
g34
tp386
(dp387
g35
I1
ss(g26
g27
tp388
(dp389
g28
I1
sg32
I1
ss(g18
g19
tp390
(dp391
g20
I1
ss(g205
g206
tp392
(dp393
g207
I1
ss(g302
g49
tp394
(dp395
g50
I1
ss(g191
g192
tp396
(dp397
g193
I1
ss(g80
g81
tp398
(dp399
g311
I1
ss(g37
g135
tp400
(dp401
g136
I1
ss(g21
g22
tp402
(dp403
g311
I1
ss(g216
g217
tp404
(dp405
g218
I1
ss(g66
g67
tp406
(dp407
g68
I1
ss(g213
g214
tp408
(dp409
g215
I1
ss(g43
g44
tp410
(dp411
g311
I1
ss(g40
g41
tp412
(dp413
g37
I1
ss(g162
g163
tp414
(dp415
g164
I1
ss(g76
g77
tp416
(dp417
g78
I1
ss(g125
g126
tp418
(dp419
g127
I1
ss(g110
g111
tp420
(dp421
g112
I1
ss(g102
g103
tp422
(dp423
g104
I1
ss(g103
g104
tp424
(dp425
g52
I1
ss(g302
g220
tp426
(dp427
g221
I1
ss(g39
g40
tp428
(dp429
g41
I1
ss(g302
g83
tp430
(dp431
g84
I1
ss(g120
g121
tp432
(dp433
g311
I1
ss(g20
g21
tp434
(dp435
g22
I1
ss(g222
g223
tp436
(dp437
g311
I1
ss(g200
g201
tp438
(dp439
g202
I1
ss(g189
g190
tp440
(dp441
g191
I1
ss(g302
g145
tp442
(dp443
g146
I1
ss(g169
g170
tp444
(dp445
g171
I1
ss(g163
g164
tp446
(dp447
g165
I1
ss(g51
g52
tp448
(dp449
g53
I1
ss(g41
g37
tp450
(dp451
g42
I1
sg135
I1
ss(g94
g95
tp452
(dp453
g52
I1
ss(g13
g14
tp454
(dp455
g15
I1
ss(g98
g99
tp456
(dp457
g100
I1
ss(g37
g38
tp458
(dp459
g39
I2
ss(g227
g228
tp460
(dp461
g229
I1
ss(g119
g120
tp462
(dp463
g121
I1
ss(g171
g172
tp464
(dp465
g173
I1
ss(g208
g209
tp466
(dp467
g210
I1
ss(g65
g66
tp468
(dp469
g67
I1
ss(g111
g112
tp470
(dp471
g113
I1
ss(g209
g210
tp472
(dp473
g211
I1
ss(g78
g79
tp474
(dp475
g80
I1
ss(g159
g160
tp476
(dp477
g161
I1
ss(g137
g138
tp478
(dp479
g139
I2
ss(g229
g230
tp480
(dp481
g231
I1
ss(g226
g227
tp482
(dp483
g228
I1
ss(g172
g173
tp484
(dp485
g174
I1
ss(g130
g131
tp486
(dp487
g132
I1
ss(g302
g109
tp488
(dp489
g37
I1
ss(g148
g149
tp490
(dp491
g150
I1
ss(g146
g147
tp492
(dp493
g148
I1
ss(g126
g127
tp494
(dp495
g128
I1
ss(g129
g130
tp496
(dp497
g131
I1
ss(g206
g207
tp498
(dp499
g208
I1
ss(g60
g61
tp500
(dp501
g62
I1
ss(g79
g80
tp502
(dp503
g81
I1
ss(g115
g116
tp504
(dp505
g117
I1
ss(g211
g212
tp506
(dp507
g213
I1
ss(g215
g216
tp508
(dp509
g217
I1
ss(g104
g52
tp510
(dp511
g105
I1
ss(g236
g237
tp512
(dp513
g238
I1
ss(g302
g46
tp514
(dp515
g47
I1
ss(g214
g215
tp516
(dp517
g216
I1
ss(g175
g176
tp518
(dp519
g177
I1
ss(g203
g204
tp520
(dp521
g205
I1
ss(g151
g152
tp522
(dp523
g153
I1
ss(g132
g133
tp524
(dp525
g134
I1
ss(g37
g110
tp526
(dp527
g111
I1
ss(g228
g229
tp528
(dp529
g230
I1
ss(g201
g202
tp530
(dp531
g203
I1
ss(g37
g92
tp532
(dp533
g93
I1
ss(g302
g37
tp534
(dp535
g167
I1
sg38
I1
ss(g135
g136
tp536
(dp537
g137
I1
ss(g237
g238
tp538
(dp539
g311
I1
ss(g185
g186
tp540
(dp541
g187
I1
ss(g210
g211
tp542
(dp543
g212
I1
ss(g302
g200
tp544
(dp545
g201
I1
ss(g302
g24
tp546
(dp547
g25
I1
ss(g187
g188
tp548
(dp549
g189
I1
ss(g52
g141
tp550
(dp551
g142
I1
ss(g139
g140
tp552
(dp553
g52
I1
ss(g32
g33
tp554
(dp555
g34
I1
ss(g52
g96
tp556
(dp557
g97
I2
ss(g188
g189
tp558
(dp559
g190
I1
ss(g92
g93
tp560
(dp561
g94
I1
ss(g176
g177
tp562
(dp563
g178
I1
ss(g161
g162
tp564
(dp565
g163
I1
ss(g54
g55
tp566
(dp567
g56
I1
ss(g74
g75
tp568
(dp569
g76
I1
ss(g131
g132
tp570
(dp571
g133
I1
ss(g160
g161
tp572
(dp573
g162
I1
ss(g53
g54
tp574
(dp575
g55
I1
ss(g233
g234
tp576
(dp577
g235
I1
ss(g302
g225
tp578
(dp579
g226
I1
ss(g31
g32
tp580
(dp581
g33
I1
ss(g87
g88
tp582
(dp583
g89
I1
ss(g153
g154
tp584
(dp585
g155
I1
ss(g70
g71
tp586
(dp587
g72
I1
ss(g24
g25
tp588
(dp589
g26
I1
ss(g93
g94
tp590
(dp591
g95
I1
ss(g77
g78
tp592
(dp593
g79
I1
ss(g75
g76
tp594
(dp595
g77
I1
ss(g133
g134
tp596
(dp597
g37
I1
ss(g29
g30
tp598
(dp599
g31
I1
ss(g147
g148
tp600
(dp601
g149
I1
ss(g194
g195
tp602
(dp603
g196
I1
ss(g142
g143
tp604
(dp605
g311
I1
ss(g302
g302
tp606
(dp607
g109
I1
sg225
I1
sg49
I1
sg200
I1
sg37
I2
sg24
I1
sg123
I1
sg83
I1
sg181
I1
sg46
I1
sg145
I1
sg220
I1
sg13
I1
sg64
I1
ss(g231
g232
tp608
(dp609
g233
I1
ss(g168
g169
tp610
(dp611
g170
I1
ss(g37
g167
tp612
(dp613
g168
I1
ss(g195
g196
tp614
(dp615
g197
I1
ss(g97
g98
tp616
(dp617
g99
I1
sg311
I1
ss(g113
g114
tp618
(dp619
g115
I1
ss(g167
g168
tp620
(dp621
g169
I1
ss(g52
g53
tp622
(dp623
g54
I1
ss(g52
g70
tp624
(dp625
g71
I1
ss(g27
g28
tp626
(dp627
g29
I1
ss(g85
g86
tp628
(dp629
g87
I1
ss(g73
g74
tp630
(dp631
g75
I1
ss(g302
g181
tp632
(dp633
g182
I1
ss(g84
g85
tp634
(dp635
g86
I1
ss(g112
g113
tp636
(dp637
g114
I1
ss(g15
g16
tp638
(dp639
g17
I1
ss(g183
g184
tp640
(dp641
g185
I1
ss(g96
g97
tp642
(dp643
g98
I2
ss(g116
g117
tp644
(dp645
g118
I1
ss(g71
g72
tp646
(dp647
g73
I1
ss(g212
g213
tp648
(dp649
g214
I1
ss(g56
g57
tp650
(dp651
g58
I1
ss(g69
g52
tp652
(dp653
g70
I1
ss(g193
g194
tp654
(dp655
g195
I1
ss(g118
g119
tp656
(dp657
g120
I1
ss(g46
g47
tp658
(dp659
g311
I1
ss(g50
g51
tp660
(dp661
g52
I1
ss(g145
g146
tp662
(dp663
g147
I1
sssS'begin_choices'
p664
(g109
g225
g49
g200
g37
g24
g123
g83
g181
g46
g145
g220
g13
g64
tp665
sS'begin_cumdist'
p666
(lp667
I1
aI2
aI3
aI4
aI6
aI7
aI8
aI9
aI10
aI11
aI12
aI13
aI14
aI15
asS'state_size'
p668
I2
sbsg668
I2
sbag1
(g2
g3
Ntp669
Rp670
(dp671
g7
I01
sg8
Vyesterday was yom kippur, the holiest day of the jewish year. but at the end of yom kippur, we celebrate. unfortunately, that is not the case in many other countries. for today, a great battle is being waged between the modern and the medieval. these forces clash around the globe, but nowhere more starkly than in the middle east. we\u2019ve seen that happen before. we\u2019ve seen that happen before too. i\u2019ve been speaking about the need to prevent iran from developing nuclear weapons for over 15 years. in the case of iran\u2019s plans to build a nuclear weapon, the gunpowder is enriched uranium. the fuse is a nuclear detonator. for iran, amassing enough enriched uranium is far more difficult than producing the nuclear fuse. so, how much enriched uranium do you need for a bomb? and how close is iran to getting it? this is a bomb; this is a fuse. the first stage: they have to enrich enough of low enriched uranium. the second stage: they have to enrich enough medium enriched uranium. and the third stage and final stage: they have to enrich enough high enriched uranium for the first bomb. from there, it\u2019s only a few months, possibly a few weeks before they get enough enriched uranium for the first bomb. but they are not foolproof. the clash between modernity and medievalism need not be a clash between progress and tradition. we champion these principles not despite of our traditions but because of them. ladies and gentlemen, a year later, north korea exploded its first nuclear weapons device. that\u2019s the central lesson of the 20th century. and we cannot forget it. the world may have forgotten this lesson. the jewish people have not. the re-birth of israel is a testament to the indomitable spirit of my people. enough! the sooner the un\u2019s obsession with israel ends, the better. the better for israel, the better for your countries, the better for the un itself. the sooner the un\u2019s obsession with israel ends, the better. the better for israel, the better for your countries, the better for the un itself. this conflict rages because for the palestinians, the real settlements they\u2019re after are haifa, jaffa and tel aviv. netzach israel lo yeshaker.
p672
sg10
(lp673
(lp674
Vyesterday
p675
aVwas
p676
aVyom
p677
aVkippur,
p678
aVthe
p679
aVholiest
p680
aVday
p681
aVof
p682
aVthe
p683
aVjewish
p684
aVyear.
p685
aa(lp686
Vbut
p687
aVat
p688
aVthe
p689
aVend
p690
aVof
p691
aVyom
p692
aVkippur,
p693
aVwe
p694
aVcelebrate.
p695
aa(lp696
Vunfortunately,
p697
aVthat
p698
aVis
p699
aVnot
p700
aVthe
p701
aVcase
p702
aVin
p703
aVmany
p704
aVother
p705
aVcountries.
p706
aVfor
p707
aVtoday,
p708
ag52
aVgreat
p709
aVbattle
p710
aVis
p711
aVbeing
p712
aVwaged
p713
aVbetween
p714
aVthe
p715
aVmodern
p716
aVand
p717
aVthe
p718
aVmedieval.
p719
aa(lp720
Vthese
p721
aVforces
p722
aVclash
p723
aVaround
p724
aVthe
p725
aVglobe,
p726
aVbut
p727
aVnowhere
p728
aVmore
p729
aVstarkly
p730
aVthan
p731
aVin
p732
aVthe
p733
aVmiddle
p734
aVeast.
p735
aa(lp736
Vwe\u2019ve
p737
aVseen
p738
aVthat
p739
aVhappen
p740
aVbefore.
p741
aa(lp742
Vwe\u2019ve
p743
aVseen
p744
aVthat
p745
aVhappen
p746
aVbefore
p747
aVtoo.
p748
aa(lp749
Vi\u2019ve
p750
aVbeen
p751
aVspeaking
p752
aVabout
p753
aVthe
p754
aVneed
p755
aVto
p756
aVprevent
p757
aViran
p758
aVfrom
p759
aVdeveloping
p760
aVnuclear
p761
aVweapons
p762
aVfor
p763
aVover
p764
aV15
p765
aVyears.
p766
aa(lp767
Vin
p768
aVthe
p769
aVcase
p770
aVof
p771
aViran\u2019s
p772
aVplans
p773
aVto
p774
aVbuild
p775
ag52
aVnuclear
p776
aVweapon,
p777
aVthe
p778
aVgunpowder
p779
aVis
p780
aVenriched
p781
aVuranium.
p782
aVthe
p783
aVfuse
p784
aVis
p785
ag52
aVnuclear
p786
aVdetonator.
p787
aa(lp788
Vfor
p789
aViran,
p790
aVamassing
p791
aVenough
p792
aVenriched
p793
aVuranium
p794
aVis
p795
aVfar
p796
aVmore
p797
aVdifficult
p798
aVthan
p799
aVproducing
p800
aVthe
p801
aVnuclear
p802
aVfuse.
p803
aa(lp804
Vso,
p805
aVhow
p806
aVmuch
p807
aVenriched
p808
aVuranium
p809
aVdo
p810
aVyou
p811
aVneed
p812
aVfor
p813
ag52
aVbomb?
p814
aVand
p815
aVhow
p816
aVclose
p817
aVis
p818
aViran
p819
aVto
p820
aVgetting
p821
aVit?
p822
aa(lp823
Vthis
p824
aVis
p825
ag52
aVbomb;
p826
aVthis
p827
aVis
p828
ag52
aVfuse.
p829
aa(lp830
Vthe
p831
aVfirst
p832
aVstage:
p833
aVthey
p834
aVhave
p835
aVto
p836
aVenrich
p837
aVenough
p838
aVof
p839
aVlow
p840
aVenriched
p841
aVuranium.
p842
aa(lp843
Vthe
p844
aVsecond
p845
aVstage:
p846
aVthey
p847
aVhave
p848
aVto
p849
aVenrich
p850
aVenough
p851
aVmedium
p852
aVenriched
p853
aVuranium.
p854
aa(lp855
Vand
p856
aVthe
p857
aVthird
p858
aVstage
p859
aVand
p860
aVfinal
p861
aVstage:
p862
aVthey
p863
aVhave
p864
aVto
p865
aVenrich
p866
aVenough
p867
aVhigh
p868
aVenriched
p869
aVuranium
p870
aVfor
p871
aVthe
p872
aVfirst
p873
aVbomb.
p874
aa(lp875
Vfrom
p876
aVthere,
p877
aVit\u2019s
p878
aVonly
p879
ag52
aVfew
p880
aVmonths,
p881
aVpossibly
p882
ag52
aVfew
p883
aVweeks
p884
aVbefore
p885
aVthey
p886
aVget
p887
aVenough
p888
aVenriched
p889
aVuranium
p890
aVfor
p891
aVthe
p892
aVfirst
p893
aVbomb.
p894
aa(lp895
Vbut
p896
aVthey
p897
aVare
p898
aVnot
p899
aVfoolproof.
p900
aa(lp901
Vthe
p902
aVclash
p903
aVbetween
p904
aVmodernity
p905
aVand
p906
aVmedievalism
p907
aVneed
p908
aVnot
p909
aVbe
p910
ag52
aVclash
p911
aVbetween
p912
aVprogress
p913
aVand
p914
aVtradition.
p915
aa(lp916
Vwe
p917
aVchampion
p918
aVthese
p919
aVprinciples
p920
aVnot
p921
aVdespite
p922
aVof
p923
aVour
p924
aVtraditions
p925
aVbut
p926
aVbecause
p927
aVof
p928
aVthem.
p929
aa(lp930
Vladies
p931
aVand
p932
aVgentlemen,
p933
ag52
aVyear
p934
aVlater,
p935
aVnorth
p936
aVkorea
p937
aVexploded
p938
aVits
p939
aVfirst
p940
aVnuclear
p941
aVweapons
p942
aVdevice.
p943
aa(lp944
Vthat\u2019s
p945
aVthe
p946
aVcentral
p947
aVlesson
p948
aVof
p949
aVthe
p950
aV20th
p951
aVcentury.
p952
aVand
p953
aVwe
p954
aVcannot
p955
aVforget
p956
aVit.
p957
aVthe
p958
aVworld
p959
aVmay
p960
aVhave
p961
aVforgotten
p962
aVthis
p963
aVlesson.
p964
aVthe
p965
aVjewish
p966
aVpeople
p967
aVhave
p968
aVnot.
p969
aa(lp970
Vthe
p971
aVre-birth
p972
aVof
p973
aVisrael
p974
aVis
p975
ag52
aVtestament
p976
aVto
p977
aVthe
p978
aVindomitable
p979
aVspirit
p980
aVof
p981
aVmy
p982
aVpeople.
p983
aa(lp984
Venough!
p985
aa(lp986
Vthe
p987
aVsooner
p988
aVthe
p989
aVun\u2019s
p990
aVobsession
p991
aVwith
p992
aVisrael
p993
aVends,
p994
aVthe
p995
aVbetter.
p996
aVthe
p997
aVbetter
p998
aVfor
p999
aVisrael,
p1000
aVthe
p1001
aVbetter
p1002
aVfor
p1003
aVyour
p1004
aVcountries,
p1005
aVthe
p1006
aVbetter
p1007
aVfor
p1008
aVthe
p1009
aVun
p1010
aVitself.
p1011
aa(lp1012
Vthe
p1013
aVsooner
p1014
aVthe
p1015
aVun\u2019s
p1016
aVobsession
p1017
aVwith
p1018
aVisrael
p1019
aVends,
p1020
aVthe
p1021
aVbetter.
p1022
aVthe
p1023
aVbetter
p1024
aVfor
p1025
aVisrael,
p1026
aVthe
p1027
aVbetter
p1028
aVfor
p1029
aVyour
p1030
aVcountries,
p1031
aVthe
p1032
aVbetter
p1033
aVfor
p1034
aVthe
p1035
aVun
p1036
aVitself.
p1037
aa(lp1038
Vthis
p1039
aVconflict
p1040
aVrages
p1041
aVbecause
p1042
aVfor
p1043
aVthe
p1044
aVpalestinians,
p1045
aVthe
p1046
aVreal
p1047
aVsettlements
p1048
aVthey\u2019re
p1049
aVafter
p1050
aVare
p1051
aVhaifa,
p1052
aVjaffa
p1053
aVand
p1054
aVtel
p1055
aVaviv.
p1056
aa(lp1057
Vnetzach
p1058
aVisrael
p1059
aVlo
p1060
aVyeshaker.
p1061
aasg239
g1
(g240
g3
Ntp1062
Rp1063
(dp1064
g244
(dp1065
(g52
g976
tp1066
(dp1067
g977
I1
ss(g806
g807
tp1068
(dp1069
g808
I1
ss(g712
g713
tp1070
(dp1071
g714
I1
ss(g717
g718
tp1072
(dp1073
g719
I1
sg858
I1
ss(g924
g925
tp1074
(dp1075
g926
I1
ss(g989
g990
tp1076
(dp1077
g991
I2
ss(g935
g936
tp1078
(dp1079
g937
I1
ss(g962
g963
tp1080
(dp1081
g964
I1
ss(g1058
g1059
tp1082
(dp1083
g1060
I1
ss(g952
g953
tp1084
(dp1085
g954
I1
ss(g931
g932
tp1086
(dp1087
g933
I1
ss(g971
g972
tp1088
(dp1089
g973
I1
ss(g1039
g1040
tp1090
(dp1091
g1041
I1
ss(g1055
g1056
tp1092
(dp1093
g311
I1
ss(g908
g909
tp1094
(dp1095
g910
I1
ss(g734
g735
tp1096
(dp1097
g311
I1
ss(g1060
g1061
tp1098
(dp1099
g311
I1
ss(g966
g967
tp1100
(dp1101
g968
I1
ss(g917
g918
tp1102
(dp1103
g919
I1
ss(g1049
g1050
tp1104
(dp1105
g1051
I1
ss(g1045
g1046
tp1106
(dp1107
g1047
I1
ss(g52
g880
tp1108
(dp1109
g884
I1
sg881
I1
ss(g790
g791
tp1110
(dp1111
g792
I1
ss(g688
g689
tp1112
(dp1113
g690
I1
ss(g764
g765
tp1114
(dp1115
g766
I1
ss(g832
g833
tp1116
(dp1117
g834
I1
ss(g887
g888
tp1118
(dp1119
g889
I1
ss(g991
g992
tp1120
(dp1121
g993
I2
ss(g932
g933
tp1122
(dp1123
g52
I1
ss(g778
g779
tp1124
(dp1125
g780
I1
ss(g992
g993
tp1126
(dp1127
g994
I2
ss(g886
g887
tp1128
(dp1129
g888
I1
ss(g982
g983
tp1130
(dp1131
g311
I1
ss(g938
g939
tp1132
(dp1133
g940
I1
ss(g704
g705
tp1134
(dp1135
g706
I1
ss(g958
g959
tp1136
(dp1137
g960
I1
ss(g737
g738
tp1138
(dp1139
g739
I2
ss(g708
g52
tp1140
(dp1141
g709
I1
ss(g998
g999
tp1142
(dp1143
g1009
I2
sg1004
I2
sg1000
I2
ss(g726
g727
tp1144
(dp1145
g728
I1
ss(g851
g852
tp1146
(dp1147
g853
I1
ss(g836
g837
tp1148
(dp1149
g838
I3
ss(g1003
g1004
tp1150
(dp1151
g1005
I2
ss(g751
g752
tp1152
(dp1153
g753
I1
ss(g1047
g1048
tp1154
(dp1155
g1049
I1
ss(g860
g861
tp1156
(dp1157
g862
I1
ss(g302
g1058
tp1158
(dp1159
g1059
I1
ss(g978
g979
tp1160
(dp1161
g980
I1
ss(g824
g825
tp1162
(dp1163
g52
I2
ss(g899
g900
tp1164
(dp1165
g311
I1
ss(g1004
g1005
tp1166
(dp1167
g1006
I2
ss(g731
g732
tp1168
(dp1169
g733
I1
ss(g689
g690
tp1170
(dp1171
g691
I1
ss(g1051
g1052
tp1172
(dp1173
g1053
I1
ss(g845
g846
tp1174
(dp1175
g847
I1
ss(g302
g805
tp1176
(dp1177
g806
I1
ss(g302
g831
tp1178
(dp1179
g845
I1
sg972
I1
sg988
I2
sg903
I1
sg832
I1
ss(g967
g968
tp1180
(dp1181
g969
I1
ss(g857
g858
tp1182
(dp1183
g859
I1
ss(g807
g808
tp1184
(dp1185
g809
I1
ss(g753
g754
tp1186
(dp1187
g755
I1
ss(g817
g818
tp1188
(dp1189
g819
I1
ss(g809
g810
tp1190
(dp1191
g811
I1
ss(g302
g931
tp1192
(dp1193
g932
I1
ss(g814
g815
tp1194
(dp1195
g816
I1
ss(g972
g973
tp1196
(dp1197
g974
I1
ss(g756
g757
tp1198
(dp1199
g758
I1
ss(g1046
g1047
tp1200
(dp1201
g1048
I1
ss(g302
g789
tp1202
(dp1203
g790
I1
ss(g987
g988
tp1204
(dp1205
g989
I2
ss(g877
g878
tp1206
(dp1207
g879
I1
ss(g988
g989
tp1208
(dp1209
g990
I2
ss(g945
g946
tp1210
(dp1211
g947
I1
ss(g698
g699
tp1212
(dp1213
g700
I1
ss(g839
g840
tp1214
(dp1215
g841
I1
ss(g52
g776
tp1216
(dp1217
g787
I1
sg777
I1
ss(g881
g882
tp1218
(dp1219
g52
I1
ss(g912
g913
tp1220
(dp1221
g914
I1
ss(g792
g793
tp1222
(dp1223
g794
I2
ss(g897
g898
tp1224
(dp1225
g899
I1
ss(g682
g683
tp1226
(dp1227
g684
I1
sg951
I1
ss(g977
g978
tp1228
(dp1229
g979
I1
ss(g713
g714
tp1230
(dp1231
g715
I1
ss(g818
g819
tp1232
(dp1233
g820
I1
ss(g920
g921
tp1234
(dp1235
g922
I1
ss(g820
g821
tp1236
(dp1237
g822
I1
ss(g976
g977
tp1238
(dp1239
g978
I1
ss(g302
g768
tp1240
(dp1241
g769
I1
ss(g858
g859
tp1242
(dp1243
g860
I1
ss(g757
g758
tp1244
(dp1245
g759
I1
ss(g700
g701
tp1246
(dp1247
g702
I1
ss(g884
g885
tp1248
(dp1249
g886
I1
ss(g52
g911
tp1250
(dp1251
g912
I1
ss(g728
g729
tp1252
(dp1253
g730
I1
ss(g946
g947
tp1254
(dp1255
g948
I1
ss(g302
g824
tp1256
(dp1257
g825
I1
sg1040
I1
ss(g1050
g1051
tp1258
(dp1259
g1052
I1
ss(g750
g751
tp1260
(dp1261
g752
I1
ss(g928
g929
tp1262
(dp1263
g311
I1
ss(g933
g52
tp1264
(dp1265
g934
I1
ss(g861
g862
tp1266
(dp1267
g863
I1
ss(g711
g712
tp1268
(dp1269
g713
I1
ss(g907
g908
tp1270
(dp1271
g909
I1
ss(g805
g806
tp1272
(dp1273
g807
I1
ss(g691
g692
tp1274
(dp1275
g693
I1
ss(g870
g871
tp1276
(dp1277
g872
I2
ss(g981
g982
tp1278
(dp1279
g983
I1
ss(g831
g832
tp1280
(dp1281
g833
I1
sg874
I2
ss(g675
g676
tp1282
(dp1283
g677
I1
ss(g974
g975
tp1284
(dp1285
g52
I1
ss(g771
g772
tp1286
(dp1287
g773
I1
ss(g838
g839
tp1288
(dp1289
g840
I1
ss(g770
g771
tp1290
(dp1291
g772
I1
ss(g902
g903
tp1292
(dp1293
g904
I1
ss(g1009
g1010
tp1294
(dp1295
g1011
I2
ss(g52
g709
tp1296
(dp1297
g710
I1
ss(g844
g845
tp1298
(dp1299
g846
I1
ss(g302
g945
tp1300
(dp1301
g946
I1
ss(g762
g763
tp1302
(dp1303
g764
I1
ss(g994
g995
tp1304
(dp1305
g996
I2
ss(g758
g759
tp1306
(dp1307
g760
I1
ss(g302
g750
tp1308
(dp1309
g751
I1
ss(g956
g957
tp1310
(dp1311
g958
I1
ss(g1054
g1055
tp1312
(dp1313
g1056
I1
ss(g763
g764
tp1314
(dp1315
g765
I1
ss(g797
g798
tp1316
(dp1317
g799
I1
ss(g683
g684
tp1318
(dp1319
g685
I1
sg967
I1
ss(g761
g762
tp1320
(dp1321
g943
I1
sg763
I1
ss(g798
g799
tp1322
(dp1323
g800
I1
ss(g680
g681
tp1324
(dp1325
g682
I1
ss(g707
g708
tp1326
(dp1327
g52
I1
ss(g794
g795
tp1328
(dp1329
g796
I1
ss(g302
g721
tp1330
(dp1331
g722
I1
ss(g777
g778
tp1332
(dp1333
g779
I1
ss(g876
g877
tp1334
(dp1335
g878
I1
ss(g948
g949
tp1336
(dp1337
g950
I1
ss(g302
g917
tp1338
(dp1339
g918
I1
ss(g755
g756
tp1340
(dp1341
g757
I1
ss(g681
g682
tp1342
(dp1343
g683
I1
ss(g786
g787
tp1344
(dp1345
g311
I1
ss(g781
g782
tp1346
(dp1347
g783
I1
sg311
I2
ss(g740
g741
tp1348
(dp1349
g311
I1
ss(g746
g747
tp1350
(dp1351
g748
I1
ss(g979
g980
tp1352
(dp1353
g981
I1
ss(g885
g886
tp1354
(dp1355
g887
I1
ss(g937
g938
tp1356
(dp1357
g939
I1
ss(g724
g725
tp1358
(dp1359
g726
I1
ss(g684
g685
tp1360
(dp1361
g311
I1
ss(g722
g723
tp1362
(dp1363
g724
I1
ss(g697
g698
tp1364
(dp1365
g699
I1
ss(g302
g697
tp1366
(dp1367
g698
I1
ss(g784
g785
tp1368
(dp1369
g52
I1
ss(g1010
g1011
tp1370
(dp1371
g311
I2
ss(g721
g722
tp1372
(dp1373
g723
I1
ss(g954
g955
tp1374
(dp1375
g956
I1
ss(g799
g800
tp1376
(dp1377
g801
I1
ss(g302
g876
tp1378
(dp1379
g877
I1
ss(g904
g905
tp1380
(dp1381
g906
I1
ss(g999
g1000
tp1382
(dp1383
g1001
I2
ss(g779
g780
tp1384
(dp1385
g781
I1
ss(g1048
g1049
tp1386
(dp1387
g1050
I1
ss(g819
g820
tp1388
(dp1389
g821
I1
ss(g789
g790
tp1390
(dp1391
g791
I1
ss(g302
g985
tp1392
(dp1393
g311
I1
ss(g725
g726
tp1394
(dp1395
g727
I1
ss(g780
g781
tp1396
(dp1397
g782
I1
ss(g821
g822
tp1398
(dp1399
g311
I1
ss(g997
g998
tp1400
(dp1401
g999
I6
ss(g1000
g1001
tp1402
(dp1403
g1002
I2
ss(g896
g897
tp1404
(dp1405
g898
I1
ss(g730
g731
tp1406
(dp1407
g732
I1
ss(g793
g794
tp1408
(dp1409
g810
I1
sg795
I1
sg871
I2
ss(g747
g748
tp1410
(dp1411
g311
I1
ss(g782
g783
tp1412
(dp1413
g784
I1
ss(g718
g719
tp1414
(dp1415
g311
I1
ss(g791
g792
tp1416
(dp1417
g793
I1
ss(g940
g941
tp1418
(dp1419
g942
I1
ss(g677
g678
tp1420
(dp1421
g679
I1
sg694
I1
ss(g973
g974
tp1422
(dp1423
g975
I1
ss(g996
g997
tp1424
(dp1425
g998
I2
ss(g963
g964
tp1426
(dp1427
g965
I1
ss(g816
g817
tp1428
(dp1429
g818
I1
ss(g687
g688
tp1430
(dp1431
g689
I1
ss(g883
g884
tp1432
(dp1433
g885
I1
ss(g1040
g1041
tp1434
(dp1435
g1042
I1
ss(g878
g879
tp1436
(dp1437
g52
I1
ss(g710
g711
tp1438
(dp1439
g712
I1
ss(g898
g899
tp1440
(dp1441
g900
I1
ss(g678
g679
tp1442
(dp1443
g680
I1
ss(g1041
g1042
tp1444
(dp1445
g1043
I1
ss(g926
g927
tp1446
(dp1447
g928
I1
ss(g1059
g1060
tp1448
(dp1449
g1061
I1
ss(g921
g922
tp1450
(dp1451
g923
I1
ss(g939
g940
tp1452
(dp1453
g941
I1
ss(g852
g853
tp1454
(dp1455
g854
I1
ss(g813
g52
tp1456
(dp1457
g814
I1
ss(g796
g797
tp1458
(dp1459
g798
I1
ss(g703
g704
tp1460
(dp1461
g705
I1
ss(g716
g717
tp1462
(dp1463
g718
I1
ss(g1005
g1006
tp1464
(dp1465
g1007
I2
ss(g934
g935
tp1466
(dp1467
g936
I1
ss(g1042
g1043
tp1468
(dp1469
g1044
I1
ss(g302
g856
tp1470
(dp1471
g857
I1
ss(g961
g962
tp1472
(dp1473
g963
I1
ss(g871
g872
tp1474
(dp1475
g1010
I2
sg1045
I1
sg873
I2
ss(g947
g948
tp1476
(dp1477
g949
I1
ss(g910
g52
tp1478
(dp1479
g911
I1
ss(g723
g724
tp1480
(dp1481
g725
I1
ss(g795
g796
tp1482
(dp1483
g797
I1
ss(g980
g981
tp1484
(dp1485
g982
I1
ss(g52
g814
tp1486
(dp1487
g815
I1
ss(g903
g904
tp1488
(dp1489
g913
I1
sg905
I1
ss(g776
g777
tp1490
(dp1491
g778
I1
ss(g835
g836
tp1492
(dp1493
g837
I3
ss(g694
g695
tp1494
(dp1495
g311
I1
ss(g676
g677
tp1496
(dp1497
g678
I1
ss(g715
g716
tp1498
(dp1499
g717
I1
ss(g52
g934
tp1500
(dp1501
g935
I1
ss(g727
g728
tp1502
(dp1503
g729
I1
ss(g773
g774
tp1504
(dp1505
g775
I1
ss(g859
g860
tp1506
(dp1507
g861
I1
ss(g918
g919
tp1508
(dp1509
g920
I1
ss(g879
g52
tp1510
(dp1511
g880
I1
ss(g759
g760
tp1512
(dp1513
g761
I1
ss(g914
g915
tp1514
(dp1515
g311
I1
ss(g802
g803
tp1516
(dp1517
g311
I1
ss(g772
g773
tp1518
(dp1519
g774
I1
ss(g775
g52
tp1520
(dp1521
g776
I1
ss(g873
g874
tp1522
(dp1523
g311
I2
ss(g968
g969
tp1524
(dp1525
g311
I1
ss(g701
g702
tp1526
(dp1527
g771
I1
sg703
I1
ss(g302
g737
tp1528
(dp1529
g738
I2
ss(g906
g907
tp1530
(dp1531
g908
I1
ss(g826
g827
tp1532
(dp1533
g828
I1
ss(g990
g991
tp1534
(dp1535
g992
I2
ss(g738
g739
tp1536
(dp1537
g740
I2
ss(g815
g816
tp1538
(dp1539
g817
I1
ss(g699
g700
tp1540
(dp1541
g701
I1
ss(g950
g951
tp1542
(dp1543
g952
I1
ss(g960
g961
tp1544
(dp1545
g962
I1
ss(g765
g766
tp1546
(dp1547
g311
I1
ss(g733
g734
tp1548
(dp1549
g735
I1
ss(g905
g906
tp1550
(dp1551
g907
I1
ss(g785
g52
tp1552
(dp1553
g976
I1
sg786
I1
sg829
I1
sg826
I1
ss(g679
g680
tp1554
(dp1555
g681
I1
ss(g783
g784
tp1556
(dp1557
g785
I1
ss(g942
g943
tp1558
(dp1559
g311
I1
ss(g957
g958
tp1560
(dp1561
g959
I1
ss(g840
g841
tp1562
(dp1563
g842
I1
ss(g690
g691
tp1564
(dp1565
g692
I1
ss(g1052
g1053
tp1566
(dp1567
g1054
I1
ss(g739
g740
tp1568
(dp1569
g741
I1
sg747
I1
ss(g834
g835
tp1570
(dp1571
g836
I3
ss(g810
g811
tp1572
(dp1573
g812
I1
ss(g812
g813
tp1574
(dp1575
g52
I1
ss(g302
g302
tp1576
(dp1577
g856
I1
sg824
I2
sg917
I1
sg876
I1
sg945
I1
sg789
I1
sg721
I1
sg768
I1
sg675
I1
sg687
I2
sg805
I1
sg1058
I1
sg750
I1
sg985
I1
sg737
I2
sg697
I1
sg831
I6
sg931
I1
ss(g923
g924
tp1578
(dp1579
g925
I1
ss(g955
g956
tp1580
(dp1581
g957
I1
ss(g774
g775
tp1582
(dp1583
g52
I1
ss(g1044
g1045
tp1584
(dp1585
g1046
I1
ss(g925
g926
tp1586
(dp1587
g927
I1
ss(g909
g910
tp1588
(dp1589
g52
I1
ss(g709
g710
tp1590
(dp1591
g711
I1
ss(g1053
g1054
tp1592
(dp1593
g1055
I1
ss(g953
g954
tp1594
(dp1595
g955
I1
ss(g702
g703
tp1596
(dp1597
g704
I1
ss(g302
g687
tp1598
(dp1599
g688
I1
sg897
I1
ss(g936
g937
tp1600
(dp1601
g938
I1
ss(g811
g812
tp1602
(dp1603
g813
I1
ss(g52
g829
tp1604
(dp1605
g311
I1
ss(g882
g52
tp1606
(dp1607
g883
I1
ss(g706
g707
tp1608
(dp1609
g708
I1
ss(g867
g868
tp1610
(dp1611
g869
I1
ss(g913
g914
tp1612
(dp1613
g915
I1
ss(g801
g802
tp1614
(dp1615
g803
I1
ss(g714
g715
tp1616
(dp1617
g716
I1
ss(g868
g869
tp1618
(dp1619
g870
I1
ss(g302
g675
tp1620
(dp1621
g676
I1
ss(g52
g826
tp1622
(dp1623
g827
I1
ss(g959
g960
tp1624
(dp1625
g961
I1
ss(g951
g952
tp1626
(dp1627
g953
I1
ss(g837
g838
tp1628
(dp1629
g868
I1
sg839
I1
sg852
I1
ss(g754
g755
tp1630
(dp1631
g756
I1
ss(g993
g994
tp1632
(dp1633
g995
I2
ss(g833
g834
tp1634
(dp1635
g835
I3
ss(g919
g920
tp1636
(dp1637
g921
I1
ss(g922
g923
tp1638
(dp1639
g924
I1
ss(g693
g694
tp1640
(dp1641
g695
I1
ss(g752
g753
tp1642
(dp1643
g754
I1
ss(g705
g706
tp1644
(dp1645
g707
I1
ss(g880
g881
tp1646
(dp1647
g882
I1
ss(g927
g928
tp1648
(dp1649
g929
I1
ss(g995
g996
tp1650
(dp1651
g997
I2
ss(g732
g733
tp1652
(dp1653
g770
I1
sg734
I1
ss(g729
g730
tp1654
(dp1655
g731
I1
ss(g800
g801
tp1656
(dp1657
g802
I1
ss(g760
g761
tp1658
(dp1659
g762
I1
ss(g964
g965
tp1660
(dp1661
g966
I1
sssg664
(g856
g824
g917
g876
g945
g789
g721
g768
g675
g687
g805
g1058
g750
g985
g737
g697
g831
g931
tp1662
sg666
(lp1663
I1
aI3
aI4
aI5
aI6
aI7
aI8
aI9
aI10
aI12
aI13
aI14
aI15
aI16
aI18
aI19
aI25
aI26
asg668
I2
sbsg668
I2
sbag1
(g2
g3
Ntp1664
Rp1665
(dp1666
g7
I01
sg8
Vladies and gentlemen, the people of israel live on. we say in hebrew am yisrael chai, and the jewish state will live forever. we will never be uprooted again. in israel, the past and the future find common ground. ladies and gentlemen, basically, any bomb consists of explosive material and a mechanism to ignite it. in contrast, iran could produce the nuclear detonator \u2013 the fuse \u2013 in a lot less time, maybe under a year, maybe only a few months. ladies and gentlemen, ladies and gentlemen, ladies and gentlemen, ladies and gentlemen, the people of israel have come home never to be uprooted again. ladies and gentlemen, ladies and gentlemen, ladies and gentlemen, ladies and gentlemen, ladies and gentlemen, ladies and gentlemen, ladies and gentlemen, ladies and gentlemen, ladies and gentlemen, ladies and gentlemen, ladies and gentlemen, ladies and gentlemen, ladies and gentlemen, ladies and gentlemen, ladies and gentlemen, ladies and gentlemen, ladies and gentlemen,
p1667
sg10
(lp1668
(lp1669
Vladies
p1670
aVand
p1671
aVgentlemen,
p1672
aa(lp1673
Vthe
p1674
aVpeople
p1675
aVof
p1676
aVisrael
p1677
aVlive
p1678
aVon.
p1679
aVwe
p1680
aVsay
p1681
aVin
p1682
aVhebrew
p1683
aVam
p1684
aVyisrael
p1685
aVchai,
p1686
aVand
p1687
aVthe
p1688
aVjewish
p1689
aVstate
p1690
aVwill
p1691
aVlive
p1692
aVforever.
p1693
aa(lp1694
Vwe
p1695
aVwill
p1696
aVnever
p1697
aVbe
p1698
aVuprooted
p1699
aVagain.
p1700
aa(lp1701
Vin
p1702
aVisrael,
p1703
aVthe
p1704
aVpast
p1705
aVand
p1706
aVthe
p1707
aVfuture
p1708
aVfind
p1709
aVcommon
p1710
aVground.
p1711
aa(lp1712
Vladies
p1713
aVand
p1714
aVgentlemen,
p1715
aa(lp1716
Vbasically,
p1717
aVany
p1718
aVbomb
p1719
aVconsists
p1720
aVof
p1721
aVexplosive
p1722
aVmaterial
p1723
aVand
p1724
ag52
aVmechanism
p1725
aVto
p1726
aVignite
p1727
aVit.
p1728
aa(lp1729
Vin
p1730
aVcontrast,
p1731
aViran
p1732
aVcould
p1733
aVproduce
p1734
aVthe
p1735
aVnuclear
p1736
aVdetonator
p1737
aV\u2013
p1738
aVthe
p1739
aVfuse
p1740
aV\u2013
p1741
aVin
p1742
ag52
aVlot
p1743
aVless
p1744
aVtime,
p1745
aVmaybe
p1746
aVunder
p1747
ag52
aVyear,
p1748
aVmaybe
p1749
aVonly
p1750
ag52
aVfew
p1751
aVmonths.
p1752
aa(lp1753
Vladies
p1754
aVand
p1755
aVgentlemen,
p1756
aa(lp1757
Vladies
p1758
aVand
p1759
aVgentlemen,
p1760
aa(lp1761
Vladies
p1762
aVand
p1763
aVgentlemen,
p1764
aa(lp1765
Vladies
p1766
aVand
p1767
aVgentlemen,
p1768
aVthe
p1769
aVpeople
p1770
aVof
p1771
aVisrael
p1772
aVhave
p1773
aVcome
p1774
aVhome
p1775
aVnever
p1776
aVto
p1777
aVbe
p1778
aVuprooted
p1779
aVagain.
p1780
aa(lp1781
Vladies
p1782
aVand
p1783
aVgentlemen,
p1784
aa(lp1785
Vladies
p1786
aVand
p1787
aVgentlemen,
p1788
aa(lp1789
Vladies
p1790
aVand
p1791
aVgentlemen,
p1792
aa(lp1793
Vladies
p1794
aVand
p1795
aVgentlemen,
p1796
aa(lp1797
Vladies
p1798
aVand
p1799
aVgentlemen,
p1800
aa(lp1801
Vladies
p1802
aVand
p1803
aVgentlemen,
p1804
aa(lp1805
Vladies
p1806
aVand
p1807
aVgentlemen,
p1808
aa(lp1809
Vladies
p1810
aVand
p1811
aVgentlemen,
p1812
aa(lp1813
Vladies
p1814
aVand
p1815
aVgentlemen,
p1816
aa(lp1817
Vladies
p1818
aVand
p1819
aVgentlemen,
p1820
aa(lp1821
Vladies
p1822
aVand
p1823
aVgentlemen,
p1824
aa(lp1825
Vladies
p1826
aVand
p1827
aVgentlemen,
p1828
aa(lp1829
Vladies
p1830
aVand
p1831
aVgentlemen,
p1832
aa(lp1833
Vladies
p1834
aVand
p1835
aVgentlemen,
p1836
aa(lp1837
Vladies
p1838
aVand
p1839
aVgentlemen,
p1840
aa(lp1841
Vladies
p1842
aVand
p1843
aVgentlemen,
p1844
aa(lp1845
Vladies
p1846
aVand
p1847
aVgentlemen,
p1848
aasg239
g1
(g240
g3
Ntp1849
Rp1850
(dp1851
g244
(dp1852
(g302
g1717
tp1853
(dp1854
g1718
I1
ss(g1727
g1728
tp1855
(dp1856
g311
I1
ss(g1743
g1744
tp1857
(dp1858
g1745
I1
ss(g1687
g1688
tp1859
(dp1860
g1689
I1
sg1708
I1
ss(g1708
g1709
tp1861
(dp1862
g1710
I1
ss(g1676
g1677
tp1863
(dp1864
g1678
I1
sg1773
I1
ss(g52
g1725
tp1865
(dp1866
g1726
I1
ss(g302
g1702
tp1867
(dp1868
g1731
I1
sg1703
I1
ss(g1682
g1683
tp1869
(dp1870
g1684
I1
ss(g1723
g1724
tp1871
(dp1872
g52
I1
ss(g302
g1670
tp1873
(dp1874
g1671
I23
ss(g1717
g1718
tp1875
(dp1876
g1719
I1
ss(g1775
g1776
tp1877
(dp1878
g1777
I1
ss(g1737
g1738
tp1879
(dp1880
g1739
I1
ss(g1692
g1693
tp1881
(dp1882
g311
I1
ss(g302
g1674
tp1883
(dp1884
g1675
I1
ss(g1683
g1684
tp1885
(dp1886
g1685
I1
ss(g1718
g1719
tp1887
(dp1888
g1720
I1
ss(g1746
g1747
tp1889
(dp1890
g52
I1
ss(g1739
g1740
tp1891
(dp1892
g1741
I1
ss(g1730
g1731
tp1893
(dp1894
g1732
I1
ss(g1681
g1682
tp1895
(dp1896
g1683
I1
ss(g1695
g1696
tp1897
(dp1898
g1697
I1
ss(g1709
g1710
tp1899
(dp1900
g1711
I1
ss(g1684
g1685
tp1901
(dp1902
g1686
I1
ss(g1703
g1704
tp1903
(dp1904
g1705
I1
ss(g1677
g1678
tp1905
(dp1906
g1679
I1
ss(g1685
g1686
tp1907
(dp1908
g1687
I1
ss(g1734
g1735
tp1909
(dp1910
g1736
I1
ss(g302
g302
tp1911
(dp1912
g1695
I1
sg1670
I23
sg1717
I1
sg1674
I1
sg1702
I2
ss(g1671
g1672
tp1913
(dp1914
g311
I22
sg1769
I1
ss(g1777
g1778
tp1915
(dp1916
g1779
I1
ss(g1698
g1699
tp1917
(dp1918
g1700
I2
ss(g1738
g1739
tp1919
(dp1920
g1740
I1
ss(g1731
g1732
tp1921
(dp1922
g1733
I1
ss(g1690
g1691
tp1923
(dp1924
g1692
I1
ss(g1697
g1698
tp1925
(dp1926
g1699
I1
ss(g1747
g52
tp1927
(dp1928
g1748
I1
ss(g1732
g1733
tp1929
(dp1930
g1734
I1
ss(g1721
g1722
tp1931
(dp1932
g1723
I1
ss(g1719
g1720
tp1933
(dp1934
g1721
I1
ss(g52
g1748
tp1935
(dp1936
g1749
I1
ss(g1707
g1708
tp1937
(dp1938
g1709
I1
ss(g1691
g1692
tp1939
(dp1940
g1693
I1
ss(g1720
g1721
tp1941
(dp1942
g1722
I1
ss(g1741
g1742
tp1943
(dp1944
g52
I1
ss(g1725
g1726
tp1945
(dp1946
g1727
I1
ss(g1776
g1777
tp1947
(dp1948
g1778
I1
ss(g1726
g1727
tp1949
(dp1950
g1728
I1
ss(g1680
g1681
tp1951
(dp1952
g1682
I1
ss(g1745
g1746
tp1953
(dp1954
g1747
I1
ss(g1699
g1700
tp1955
(dp1956
g311
I2
ss(g1710
g1711
tp1957
(dp1958
g311
I1
ss(g1740
g1741
tp1959
(dp1960
g1742
I1
ss(g1735
g1736
tp1961
(dp1962
g1737
I1
ss(g1688
g1689
tp1963
(dp1964
g1690
I1
ss(g1705
g1706
tp1965
(dp1966
g1707
I1
ss(g1742
g52
tp1967
(dp1968
g1743
I1
ss(g1689
g1690
tp1969
(dp1970
g1691
I1
ss(g1768
g1769
tp1971
(dp1972
g1770
I1
ss(g1773
g1774
tp1973
(dp1974
g1775
I1
ss(g1749
g1750
tp1975
(dp1976
g52
I1
ss(g1679
g1680
tp1977
(dp1978
g1681
I1
ss(g1722
g1723
tp1979
(dp1980
g1724
I1
ss(g1686
g1687
tp1981
(dp1982
g1688
I1
ss(g1736
g1737
tp1983
(dp1984
g1738
I1
ss(g1696
g1697
tp1985
(dp1986
g1698
I1
ss(g1724
g52
tp1987
(dp1988
g1725
I1
ss(g302
g1695
tp1989
(dp1990
g1696
I1
ss(g1748
g1749
tp1991
(dp1992
g1750
I1
ss(g1774
g1775
tp1993
(dp1994
g1776
I1
ss(g52
g1743
tp1995
(dp1996
g1744
I1
ss(g1733
g1734
tp1997
(dp1998
g1735
I1
ss(g1678
g1679
tp1999
(dp2000
g1680
I1
ss(g1670
g1671
tp2001
(dp2002
g1672
I23
ss(g1772
g1773
tp2003
(dp2004
g1774
I1
ss(g1744
g1745
tp2005
(dp2006
g1746
I1
ss(g1750
g52
tp2007
(dp2008
g1751
I1
ss(g1704
g1705
tp2009
(dp2010
g1706
I1
ss(g52
g1751
tp2011
(dp2012
g1752
I1
ss(g1751
g1752
tp2013
(dp2014
g311
I1
ss(g1702
g1703
tp2015
(dp2016
g1704
I1
ss(g1674
g1675
tp2017
(dp2018
g1676
I2
ss(g1675
g1676
tp2019
(dp2020
g1677
I2
sssg664
(g1695
g1670
g1717
g1674
g1702
tp2021
sg666
(lp2022
I1
aI24
aI25
aI26
aI28
asg668
I2
sbsg668
I2
sbag1
(g2
g3
Ntp2023
Rp2024
(dp2025
g7
I01
sg8
Vthroughout our history, the jewish people have overcome all the tyrants who have sought our destruction. it\u2019s their ideologies that have been discarded by history. the people of israel live on. we say in hebrew am yisrael chai, and the jewish state will live forever. yesterday was yom kippur, the holiest day of the jewish year. i know you\u2019re not going to hear that from speakers around this podium, but that\u2019s the truth. it\u2019s important that you are aware of this truth. president abbas just spoke here. the traditions of the jewish people go back thousands of years. they are the source of our collective values and the foundation of our national strength. these are the timeless values of my people and these are the jewish people\u2019s greatest gift to mankind. and we re-established our sovereign state in our ancestral homeland, the land of israel. yet the jewish people persevered. and now another regime has arisen, swearing to destroy israel. this is the true face of israel. these are the values of israel. israel \u2013 twenty; rest of the world \u2013 three. distinguished delegates from so many lands,
p2026
sg10
(lp2027
(lp2028
Vthroughout
p2029
aVour
p2030
aVhistory,
p2031
aVthe
p2032
aVjewish
p2033
aVpeople
p2034
aVhave
p2035
aVovercome
p2036
aVall
p2037
aVthe
p2038
aVtyrants
p2039
aVwho
p2040
aVhave
p2041
aVsought
p2042
aVour
p2043
aVdestruction.
p2044
aVit\u2019s
p2045
aVtheir
p2046
aVideologies
p2047
aVthat
p2048
aVhave
p2049
aVbeen
p2050
aVdiscarded
p2051
aVby
p2052
aVhistory.
p2053
aa(lp2054
Vthe
p2055
aVpeople
p2056
aVof
p2057
aVisrael
p2058
aVlive
p2059
aVon.
p2060
aVwe
p2061
aVsay
p2062
aVin
p2063
aVhebrew
p2064
aVam
p2065
aVyisrael
p2066
aVchai,
p2067
aVand
p2068
aVthe
p2069
aVjewish
p2070
aVstate
p2071
aVwill
p2072
aVlive
p2073
aVforever.
p2074
aa(lp2075
Vyesterday
p2076
aVwas
p2077
aVyom
p2078
aVkippur,
p2079
aVthe
p2080
aVholiest
p2081
aVday
p2082
aVof
p2083
aVthe
p2084
aVjewish
p2085
aVyear.
p2086
aa(lp2087
g37
aVknow
p2088
aVyou\u2019re
p2089
aVnot
p2090
aVgoing
p2091
aVto
p2092
aVhear
p2093
aVthat
p2094
aVfrom
p2095
aVspeakers
p2096
aVaround
p2097
aVthis
p2098
aVpodium,
p2099
aVbut
p2100
aVthat\u2019s
p2101
aVthe
p2102
aVtruth.
p2103
aVit\u2019s
p2104
aVimportant
p2105
aVthat
p2106
aVyou
p2107
aVare
p2108
aVaware
p2109
aVof
p2110
aVthis
p2111
aVtruth.
p2112
aa(lp2113
Vpresident
p2114
aVabbas
p2115
aVjust
p2116
aVspoke
p2117
aVhere.
p2118
aa(lp2119
Vthe
p2120
aVtraditions
p2121
aVof
p2122
aVthe
p2123
aVjewish
p2124
aVpeople
p2125
aVgo
p2126
aVback
p2127
aVthousands
p2128
aVof
p2129
aVyears.
p2130
aVthey
p2131
aVare
p2132
aVthe
p2133
aVsource
p2134
aVof
p2135
aVour
p2136
aVcollective
p2137
aVvalues
p2138
aVand
p2139
aVthe
p2140
aVfoundation
p2141
aVof
p2142
aVour
p2143
aVnational
p2144
aVstrength.
p2145
aa(lp2146
Vthese
p2147
aVare
p2148
aVthe
p2149
aVtimeless
p2150
aVvalues
p2151
aVof
p2152
aVmy
p2153
aVpeople
p2154
aVand
p2155
aVthese
p2156
aVare
p2157
aVthe
p2158
aVjewish
p2159
aVpeople\u2019s
p2160
aVgreatest
p2161
aVgift
p2162
aVto
p2163
aVmankind.
p2164
aa(lp2165
Vand
p2166
aVwe
p2167
aVre-established
p2168
aVour
p2169
aVsovereign
p2170
aVstate
p2171
aVin
p2172
aVour
p2173
aVancestral
p2174
aVhomeland,
p2175
aVthe
p2176
aVland
p2177
aVof
p2178
aVisrael.
p2179
aa(lp2180
Vyet
p2181
aVthe
p2182
aVjewish
p2183
aVpeople
p2184
aVpersevered.
p2185
aa(lp2186
Vand
p2187
aVnow
p2188
aVanother
p2189
aVregime
p2190
aVhas
p2191
aVarisen,
p2192
aVswearing
p2193
aVto
p2194
aVdestroy
p2195
aVisrael.
p2196
aa(lp2197
Vthis
p2198
aVis
p2199
aVthe
p2200
aVtrue
p2201
aVface
p2202
aVof
p2203
aVisrael.
p2204
aVthese
p2205
aVare
p2206
aVthe
p2207
aVvalues
p2208
aVof
p2209
aVisrael.
p2210
aa(lp2211
Visrael
p2212
aV\u2013
p2213
aVtwenty;
p2214
aVrest
p2215
aVof
p2216
aVthe
p2217
aVworld
p2218
aV\u2013
p2219
aVthree.
p2220
aa(lp2221
Vdistinguished
p2222
aVdelegates
p2223
aVfrom
p2224
aVso
p2225
aVmany
p2226
aVlands,
p2227
aasg239
g1
(g240
g3
Ntp2228
Rp2229
(dp2230
g244
(dp2231
(g2029
g2030
tp2232
(dp2233
g2031
I1
ss(g2068
g2069
tp2234
(dp2235
g2070
I1
sg2141
I1
ss(g2140
g2141
tp2236
(dp2237
g2142
I1
ss(g2110
g2111
tp2238
(dp2239
g2112
I1
ss(g2036
g2037
tp2240
(dp2241
g2038
I1
ss(g2126
g2127
tp2242
(dp2243
g2128
I1
ss(g2033
g2034
tp2244
(dp2245
g2126
I1
sg2185
I1
sg2035
I1
ss(g2162
g2163
tp2246
(dp2247
g2164
I1
ss(g302
g2114
tp2248
(dp2249
g2115
I1
ss(g2115
g2116
tp2250
(dp2251
g2117
I1
ss(g2108
g2109
tp2252
(dp2253
g2110
I1
ss(g2089
g2090
tp2254
(dp2255
g2091
I1
ss(g2125
g2126
tp2256
(dp2257
g2127
I1
ss(g2200
g2201
tp2258
(dp2259
g2202
I1
ss(g2153
g2154
tp2260
(dp2261
g2155
I1
ss(g2191
g2192
tp2262
(dp2263
g2193
I1
ss(g2217
g2218
tp2264
(dp2265
g2219
I1
ss(g2172
g2173
tp2266
(dp2267
g2174
I1
ss(g2133
g2134
tp2268
(dp2269
g2135
I1
ss(g2212
g2213
tp2270
(dp2271
g2214
I1
ss(g2091
g2092
tp2272
(dp2273
g2093
I1
ss(g2129
g2130
tp2274
(dp2275
g2131
I1
ss(g2030
g2031
tp2276
(dp2277
g2032
I1
ss(g2049
g2050
tp2278
(dp2279
g2051
I1
ss(g2169
g2170
tp2280
(dp2281
g2171
I1
ss(g2201
g2202
tp2282
(dp2283
g2203
I1
ss(g2194
g2195
tp2284
(dp2285
g2196
I1
ss(g302
g2055
tp2286
(dp2287
g2121
I1
sg2056
I1
ss(g2034
g2035
tp2288
(dp2289
g2036
I1
ss(g2224
g2225
tp2290
(dp2291
g2226
I1
ss(g2134
g2135
tp2292
(dp2293
g2136
I1
ss(g2192
g2193
tp2294
(dp2295
g2194
I1
ss(g2045
g2046
tp2296
(dp2297
g2047
I1
ss(g2050
g2051
tp2298
(dp2299
g2052
I1
ss(g2168
g2169
tp2300
(dp2301
g2170
I1
ss(g2223
g2224
tp2302
(dp2303
g2225
I1
ss(g2159
g2160
tp2304
(dp2305
g2161
I1
ss(g2219
g2220
tp2306
(dp2307
g311
I1
ss(g2127
g2128
tp2308
(dp2309
g2129
I1
ss(g2101
g2102
tp2310
(dp2311
g2103
I1
ss(g2038
g2039
tp2312
(dp2313
g2040
I1
ss(g2097
g2098
tp2314
(dp2315
g2099
I1
ss(g2056
g2057
tp2316
(dp2317
g2058
I1
ss(g2083
g2084
tp2318
(dp2319
g2085
I2
sg2218
I1
ss(g2160
g2161
tp2320
(dp2321
g2162
I1
ss(g2176
g2177
tp2322
(dp2323
g2178
I1
ss(g2138
g2139
tp2324
(dp2325
g2140
I1
ss(g2161
g2162
tp2326
(dp2327
g2163
I1
ss(g2040
g2041
tp2328
(dp2329
g2042
I1
ss(g302
g2029
tp2330
(dp2331
g2030
I1
ss(g2111
g2112
tp2332
(dp2333
g311
I1
ss(g2095
g2096
tp2334
(dp2335
g2097
I1
ss(g2121
g2122
tp2336
(dp2337
g2123
I1
ss(g2114
g2115
tp2338
(dp2339
g2116
I1
ss(g2065
g2066
tp2340
(dp2341
g2067
I1
ss(g2100
g2101
tp2342
(dp2343
g2102
I1
ss(g2066
g2067
tp2344
(dp2345
g2068
I1
ss(g2128
g2129
tp2346
(dp2347
g2130
I1
ss(g2174
g2175
tp2348
(dp2349
g2176
I1
ss(g2152
g2153
tp2350
(dp2351
g2154
I1
ss(g2071
g2072
tp2352
(dp2353
g2073
I1
ss(g2076
g2077
tp2354
(dp2355
g2078
I1
ss(g2151
g2152
tp2356
(dp2357
g2153
I1
sg2210
I1
ss(g2141
g2142
tp2358
(dp2359
g2143
I1
ss(g2170
g2171
tp2360
(dp2361
g2172
I1
ss(g2072
g2073
tp2362
(dp2363
g2074
I1
ss(g2116
g2117
tp2364
(dp2365
g2118
I1
ss(g2171
g2172
tp2366
(dp2367
g2173
I1
ss(g2061
g2062
tp2368
(dp2369
g2063
I1
ss(g2222
g2223
tp2370
(dp2371
g2224
I1
ss(g2032
g2033
tp2372
(dp2373
g2071
I1
sg2160
I1
sg2086
I1
sg2034
I3
ss(g2088
g2089
tp2374
(dp2375
g2090
I1
ss(g2081
g2082
tp2376
(dp2377
g2083
I1
ss(g302
g2198
tp2378
(dp2379
g2199
I1
ss(g2039
g2040
tp2380
(dp2381
g2041
I1
ss(g2067
g2068
tp2382
(dp2383
g2069
I1
ss(g2107
g2108
tp2384
(dp2385
g2109
I1
ss(g2043
g2044
tp2386
(dp2387
g2045
I1
ss(g2207
g2208
tp2388
(dp2389
g2209
I1
ss(g2082
g2083
tp2390
(dp2391
g2084
I1
ss(g2144
g2145
tp2392
(dp2393
g311
I1
ss(g2063
g2064
tp2394
(dp2395
g2065
I1
ss(g2042
g2043
tp2396
(dp2397
g2044
I1
ss(g2085
g2086
tp2398
(dp2399
g311
I1
ss(g2096
g2097
tp2400
(dp2401
g2098
I1
ss(g2046
g2047
tp2402
(dp2403
g2048
I1
ss(g2135
g2136
tp2404
(dp2405
g2137
I1
sg2144
I1
ss(g2070
g2071
tp2406
(dp2407
g2072
I1
ss(g2136
g2137
tp2408
(dp2409
g2138
I1
ss(g2106
g2107
tp2410
(dp2411
g2108
I1
ss(g2218
g2219
tp2412
(dp2413
g2220
I1
ss(g2184
g2185
tp2414
(dp2415
g311
I1
ss(g2198
g2199
tp2416
(dp2417
g2200
I1
ss(g2044
g2045
tp2418
(dp2419
g2046
I1
ss(g2213
g2214
tp2420
(dp2421
g2215
I1
ss(g2055
g2056
tp2422
(dp2423
g2057
I1
ss(g2048
g2049
tp2424
(dp2425
g2050
I1
ss(g2189
g2190
tp2426
(dp2427
g2191
I1
ss(g2131
g2132
tp2428
(dp2429
g2133
I1
ss(g2035
g2036
tp2430
(dp2431
g2037
I1
ss(g2150
g2151
tp2432
(dp2433
g2152
I1
ss(g2132
g2133
tp2434
(dp2435
g2159
I1
sg2134
I1
sg2150
I1
sg2208
I1
ss(g2098
g2099
tp2436
(dp2437
g2100
I1
ss(g2058
g2059
tp2438
(dp2439
g2060
I1
ss(g2105
g2106
tp2440
(dp2441
g2107
I1
ss(g2147
g2148
tp2442
(dp2443
g2149
I3
ss(g2078
g2079
tp2444
(dp2445
g2080
I1
ss(g2175
g2176
tp2446
(dp2447
g2177
I1
ss(g2225
g2226
tp2448
(dp2449
g2227
I1
ss(g2204
g2205
tp2450
(dp2451
g2206
I1
ss(g2195
g2196
tp2452
(dp2453
g311
I1
ss(g2037
g2038
tp2454
(dp2455
g2039
I1
ss(g2079
g2080
tp2456
(dp2457
g2081
I1
ss(g2130
g2131
tp2458
(dp2459
g2132
I1
ss(g2202
g2203
tp2460
(dp2461
g2204
I1
ss(g2047
g2048
tp2462
(dp2463
g2049
I1
ss(g302
g37
tp2464
(dp2465
g2088
I1
ss(g2117
g2118
tp2466
(dp2467
g311
I1
ss(g302
g2166
tp2468
(dp2469
g2167
I1
sg2188
I1
ss(g2060
g2061
tp2470
(dp2471
g2062
I1
ss(g2181
g2182
tp2472
(dp2473
g2183
I1
ss(g2143
g2144
tp2474
(dp2475
g2145
I1
ss(g2154
g2155
tp2476
(dp2477
g2156
I1
ss(g2167
g2168
tp2478
(dp2479
g2169
I1
ss(g2103
g2104
tp2480
(dp2481
g2105
I1
ss(g37
g2088
tp2482
(dp2483
g2089
I1
ss(g2092
g2093
tp2484
(dp2485
g2094
I1
ss(g2077
g2078
tp2486
(dp2487
g2079
I1
ss(g2199
g2200
tp2488
(dp2489
g2201
I1
ss(g2052
g2053
tp2490
(dp2491
g311
I1
ss(g2178
g2179
tp2492
(dp2493
g2205
I1
sg311
I2
ss(g2163
g2164
tp2494
(dp2495
g311
I1
ss(g2155
g2156
tp2496
(dp2497
g2157
I1
ss(g2057
g2058
tp2498
(dp2499
g2059
I1
ss(g2031
g2032
tp2500
(dp2501
g2033
I1
ss(g2094
g2095
tp2502
(dp2503
g2096
I1
ss(g2093
g2094
tp2504
(dp2505
g2095
I1
ss(g2177
g2178
tp2506
(dp2507
g2179
I1
ss(g2073
g2074
tp2508
(dp2509
g311
I1
ss(g2064
g2065
tp2510
(dp2511
g2066
I1
ss(g2080
g2081
tp2512
(dp2513
g2082
I1
ss(g2188
g2189
tp2514
(dp2515
g2190
I1
ss(g2062
g2063
tp2516
(dp2517
g2064
I1
ss(g302
g302
tp2518
(dp2519
g2166
I2
sg2198
I1
sg2212
I1
sg37
I1
sg2076
I1
sg2222
I1
sg2147
I1
sg2114
I1
sg2055
I2
sg2029
I1
sg2181
I1
ss(g2173
g2174
tp2520
(dp2521
g2175
I1
ss(g2102
g2103
tp2522
(dp2523
g2104
I1
ss(g2215
g2216
tp2524
(dp2525
g2217
I1
ss(g2166
g2167
tp2526
(dp2527
g2168
I1
ss(g2193
g2194
tp2528
(dp2529
g2195
I1
ss(g2137
g2138
tp2530
(dp2531
g2139
I1
ss(g2187
g2188
tp2532
(dp2533
g2189
I1
ss(g2041
g2042
tp2534
(dp2535
g2043
I1
ss(g302
g2222
tp2536
(dp2537
g2223
I1
ss(g2051
g2052
tp2538
(dp2539
g2053
I1
ss(g302
g2147
tp2540
(dp2541
g2148
I1
ss(g2190
g2191
tp2542
(dp2543
g2192
I1
ss(g2099
g2100
tp2544
(dp2545
g2101
I1
ss(g2109
g2110
tp2546
(dp2547
g2111
I1
ss(g302
g2076
tp2548
(dp2549
g2077
I1
ss(g2090
g2091
tp2550
(dp2551
g2092
I1
ss(g302
g2212
tp2552
(dp2553
g2213
I1
ss(g302
g2181
tp2554
(dp2555
g2182
I1
ss(g2059
g2060
tp2556
(dp2557
g2061
I1
ss(g2149
g2150
tp2558
(dp2559
g2151
I1
ss(g2214
g2215
tp2560
(dp2561
g2216
I1
ss(g2120
g2121
tp2562
(dp2563
g2122
I1
ss(g2226
g2227
tp2564
(dp2565
g311
I1
ss(g2104
g2105
tp2566
(dp2567
g2106
I1
sssg664
(g2166
g2198
g2212
g37
g2076
g2222
g2147
g2114
g2055
g2029
g2181
tp2568
sg666
(lp2569
I2
aI3
aI4
aI5
aI6
aI7
aI8
aI9
aI11
aI12
aI13
asg668
I2
sbsg668
I2
sbag1
(g2
g3
Ntp2570
Rp2571
(dp2572
g7
I01
sg8
Vmy friends, we cannot let that happen again. not irrational\u2026 israel is in discussions with the united states over this issue, and i am confident that we can chart a path forward together. thank you. are we to believe that rouhani, the national security adviser of iran at the time, knew nothing about these attacks? ladies and gentlemen, a year later, north korea exploded its first nuclear weapons device. conquered. stand with israel because israel is not just defending itself. more than ever, israel is defending you. what i\u2019m about to say is going to shock you: israel has a bright future at the un. the un, begun as a moral force, has become a moral farce. the issue of settlements is a real one and it can and must be resolved in final status negotiations. thank you. happy new year. shanah tovah from israel. thank you.
p2573
sg10
(lp2574
(lp2575
Vmy
p2576
aVfriends,
p2577
aVwe
p2578
aVcannot
p2579
aVlet
p2580
aVthat
p2581
aVhappen
p2582
aVagain.
p2583
aa(lp2584
Vnot
p2585
aVirrational\u2026
p2586
aa(lp2587
Visrael
p2588
aVis
p2589
aVin
p2590
aVdiscussions
p2591
aVwith
p2592
aVthe
p2593
aVunited
p2594
aVstates
p2595
aVover
p2596
aVthis
p2597
aVissue,
p2598
aVand
p2599
ag37
aVam
p2600
aVconfident
p2601
aVthat
p2602
aVwe
p2603
aVcan
p2604
aVchart
p2605
ag52
aVpath
p2606
aVforward
p2607
aVtogether.
p2608
aa(lp2609
Vthank
p2610
aVyou.
p2611
aa(lp2612
Vare
p2613
aVwe
p2614
aVto
p2615
aVbelieve
p2616
aVthat
p2617
aVrouhani,
p2618
aVthe
p2619
aVnational
p2620
aVsecurity
p2621
aVadviser
p2622
aVof
p2623
aViran
p2624
aVat
p2625
aVthe
p2626
aVtime,
p2627
aVknew
p2628
aVnothing
p2629
aVabout
p2630
aVthese
p2631
aVattacks?
p2632
aa(lp2633
Vladies
p2634
aVand
p2635
aVgentlemen,
p2636
ag52
aVyear
p2637
aVlater,
p2638
aVnorth
p2639
aVkorea
p2640
aVexploded
p2641
aVits
p2642
aVfirst
p2643
aVnuclear
p2644
aVweapons
p2645
aVdevice.
p2646
aa(lp2647
Vconquered.
p2648
aa(lp2649
Vstand
p2650
aVwith
p2651
aVisrael
p2652
aVbecause
p2653
aVisrael
p2654
aVis
p2655
aVnot
p2656
aVjust
p2657
aVdefending
p2658
aVitself.
p2659
aVmore
p2660
aVthan
p2661
aVever,
p2662
aVisrael
p2663
aVis
p2664
aVdefending
p2665
aVyou.
p2666
aa(lp2667
Vwhat
p2668
aVi\u2019m
p2669
aVabout
p2670
aVto
p2671
aVsay
p2672
aVis
p2673
aVgoing
p2674
aVto
p2675
aVshock
p2676
aVyou:
p2677
aVisrael
p2678
aVhas
p2679
ag52
aVbright
p2680
aVfuture
p2681
aVat
p2682
aVthe
p2683
aVun.
p2684
aa(lp2685
Vthe
p2686
aVun,
p2687
aVbegun
p2688
aVas
p2689
ag52
aVmoral
p2690
aVforce,
p2691
aVhas
p2692
aVbecome
p2693
ag52
aVmoral
p2694
aVfarce.
p2695
aa(lp2696
Vthe
p2697
aVissue
p2698
aVof
p2699
aVsettlements
p2700
aVis
p2701
ag52
aVreal
p2702
aVone
p2703
aVand
p2704
aVit
p2705
aVcan
p2706
aVand
p2707
aVmust
p2708
aVbe
p2709
aVresolved
p2710
aVin
p2711
aVfinal
p2712
aVstatus
p2713
aVnegotiations.
p2714
aa(lp2715
Vthank
p2716
aVyou.
p2717
aa(lp2718
Vhappy
p2719
aVnew
p2720
aVyear.
p2721
aVshanah
p2722
aVtovah
p2723
aVfrom
p2724
aVisrael.
p2725
aVthank
p2726
aVyou.
p2727
aasg239
g1
(g240
g3
Ntp2728
Rp2729
(dp2730
g244
(dp2731
(g2653
g2654
tp2732
(dp2733
g2655
I1
ss(g2686
g2687
tp2734
(dp2735
g2688
I1
ss(g2657
g2658
tp2736
(dp2737
g2659
I1
ss(g2594
g2595
tp2738
(dp2739
g2596
I1
ss(g2580
g2581
tp2740
(dp2741
g2582
I1
ss(g2699
g2700
tp2742
(dp2743
g2701
I1
ss(g302
g2686
tp2744
(dp2745
g2698
I1
sg2687
I1
ss(g2681
g2682
tp2746
(dp2747
g2683
I1
ss(g2689
g52
tp2748
(dp2749
g2690
I1
ss(g2627
g2628
tp2750
(dp2751
g2629
I1
ss(g2578
g2579
tp2752
(dp2753
g2580
I1
ss(g2593
g2594
tp2754
(dp2755
g2595
I1
ss(g2651
g2652
tp2756
(dp2757
g2653
I1
ss(g2622
g2623
tp2758
(dp2759
g2624
I1
ss(g2721
g2722
tp2760
(dp2761
g2723
I1
ss(g2615
g2616
tp2762
(dp2763
g2617
I1
ss(g2604
g2605
tp2764
(dp2765
g52
I1
ss(g2603
g2604
tp2766
(dp2767
g2605
I1
ss(g2674
g2675
tp2768
(dp2769
g2676
I1
ss(g2697
g2698
tp2770
(dp2771
g2699
I1
ss(g302
g2613
tp2772
(dp2773
g2614
I1
ss(g2641
g2642
tp2774
(dp2775
g2643
I1
ss(g52
g2702
tp2776
(dp2777
g2703
I1
ss(g2638
g2639
tp2778
(dp2779
g2640
I1
ss(g2589
g2590
tp2780
(dp2781
g2591
I1
ss(g2618
g2619
tp2782
(dp2783
g2620
I1
ss(g2672
g2673
tp2784
(dp2785
g2674
I1
ss(g2592
g2593
tp2786
(dp2787
g2594
I1
ss(g2713
g2714
tp2788
(dp2789
g311
I1
ss(g2702
g2703
tp2790
(dp2791
g2704
I1
ss(g2601
g2602
tp2792
(dp2793
g2603
I1
ss(g2688
g2689
tp2794
(dp2795
g52
I1
ss(g2703
g2704
tp2796
(dp2797
g2705
I1
ss(g2690
g2691
tp2798
(dp2799
g2692
I1
ss(g2614
g2615
tp2800
(dp2801
g2616
I1
ss(g2591
g2592
tp2802
(dp2803
g2593
I1
ss(g2606
g2607
tp2804
(dp2805
g2608
I1
ss(g2588
g2589
tp2806
(dp2807
g2656
I1
sg2665
I1
sg2590
I1
ss(g302
g2648
tp2808
(dp2809
g311
I1
ss(g2631
g2632
tp2810
(dp2811
g311
I1
ss(g2636
g52
tp2812
(dp2813
g2637
I1
ss(g302
g2610
tp2814
(dp2815
g2611
I2
ss(g2725
g2726
tp2816
(dp2817
g2727
I1
ss(g2616
g2617
tp2818
(dp2819
g2618
I1
ss(g2650
g2651
tp2820
(dp2821
g2652
I1
ss(g2675
g2676
tp2822
(dp2823
g2677
I1
ss(g52
g2680
tp2824
(dp2825
g2681
I1
ss(g2680
g2681
tp2826
(dp2827
g2682
I1
ss(g2605
g52
tp2828
(dp2829
g2606
I1
ss(g2643
g2644
tp2830
(dp2831
g2645
I1
ss(g37
g2600
tp2832
(dp2833
g2601
I1
ss(g2694
g2695
tp2834
(dp2835
g311
I1
ss(g2700
g2701
tp2836
(dp2837
g52
I1
ss(g2644
g2645
tp2838
(dp2839
g2646
I1
ss(g2640
g2641
tp2840
(dp2841
g2642
I1
ss(g2723
g2724
tp2842
(dp2843
g2725
I1
ss(g2625
g2626
tp2844
(dp2845
g2627
I1
sg2684
I1
ss(g2585
g2586
tp2846
(dp2847
g311
I1
ss(g2590
g2591
tp2848
(dp2849
g2592
I1
ss(g2670
g2671
tp2850
(dp2851
g2672
I1
ss(g2669
g2670
tp2852
(dp2853
g2671
I1
ss(g52
g2690
tp2854
(dp2855
g2691
I1
sg2695
I1
ss(g2668
g2669
tp2856
(dp2857
g2670
I1
ss(g2711
g2712
tp2858
(dp2859
g2713
I1
ss(g2673
g2674
tp2860
(dp2861
g2675
I1
ss(g2720
g2721
tp2862
(dp2863
g2722
I1
ss(g2683
g2684
tp2864
(dp2865
g311
I1
ss(g2704
g2705
tp2866
(dp2867
g2706
I1
ss(g2620
g2621
tp2868
(dp2869
g2622
I1
ss(g2599
g37
tp2870
(dp2871
g2600
I1
ss(g2659
g2660
tp2872
(dp2873
g2661
I1
ss(g302
g2585
tp2874
(dp2875
g2586
I1
ss(g2671
g2672
tp2876
(dp2877
g2673
I1
ss(g2692
g2693
tp2878
(dp2879
g52
I1
ss(g2621
g2622
tp2880
(dp2881
g2623
I1
ss(g2698
g2699
tp2882
(dp2883
g2700
I1
ss(g2635
g2636
tp2884
(dp2885
g52
I1
ss(g302
g2634
tp2886
(dp2887
g2635
I1
ss(g2652
g2653
tp2888
(dp2889
g2654
I1
ss(g2617
g2618
tp2890
(dp2891
g2619
I1
ss(g2602
g2603
tp2892
(dp2893
g2604
I1
ss(g2576
g2577
tp2894
(dp2895
g2578
I1
ss(g2595
g2596
tp2896
(dp2897
g2597
I1
ss(g2658
g2659
tp2898
(dp2899
g2660
I1
ss(g302
g2576
tp2900
(dp2901
g2577
I1
ss(g2577
g2578
tp2902
(dp2903
g2579
I1
ss(g302
g2650
tp2904
(dp2905
g2651
I1
ss(g302
g2668
tp2906
(dp2907
g2669
I1
ss(g2707
g2708
tp2908
(dp2909
g2709
I1
ss(g52
g2637
tp2910
(dp2911
g2638
I1
ss(g2629
g2630
tp2912
(dp2913
g2631
I1
ss(g2597
g2598
tp2914
(dp2915
g2599
I1
ss(g2630
g2631
tp2916
(dp2917
g2632
I1
ss(g2642
g2643
tp2918
(dp2919
g2644
I1
ss(g2637
g2638
tp2920
(dp2921
g2639
I1
ss(g2709
g2710
tp2922
(dp2923
g2711
I1
ss(g2579
g2580
tp2924
(dp2925
g2581
I1
ss(g2679
g52
tp2926
(dp2927
g2680
I1
ss(g52
g2606
tp2928
(dp2929
g2607
I1
ss(g2634
g2635
tp2930
(dp2931
g2636
I1
ss(g2676
g2677
tp2932
(dp2933
g2678
I1
ss(g2610
g2611
tp2934
(dp2935
g311
I3
ss(g2596
g2597
tp2936
(dp2937
g2598
I1
ss(g2656
g2657
tp2938
(dp2939
g2658
I1
ss(g2677
g2678
tp2940
(dp2941
g2679
I1
ss(g2655
g2656
tp2942
(dp2943
g2657
I1
ss(g2664
g2665
tp2944
(dp2945
g2666
I1
ss(g2582
g2583
tp2946
(dp2947
g311
I1
ss(g2701
g52
tp2948
(dp2949
g2702
I1
ss(g2628
g2629
tp2950
(dp2951
g2630
I1
ss(g2626
g2627
tp2952
(dp2953
g2628
I1
ss(g2598
g2599
tp2954
(dp2955
g37
I1
ss(g2607
g2608
tp2956
(dp2957
g311
I1
ss(g2645
g2646
tp2958
(dp2959
g311
I1
ss(g2708
g2709
tp2960
(dp2961
g2710
I1
ss(g2660
g2661
tp2962
(dp2963
g2662
I1
ss(g2581
g2582
tp2964
(dp2965
g2583
I1
ss(g302
g302
tp2966
(dp2967
g2588
I1
sg2610
I2
sg2668
I1
sg2634
I1
sg2648
I1
sg2613
I1
sg2585
I1
sg2686
I2
sg2719
I1
sg2576
I1
sg2650
I1
ss(g2687
g2688
tp2968
(dp2969
g2689
I1
ss(g2661
g2662
tp2970
(dp2971
g2663
I1
ss(g2710
g2711
tp2972
(dp2973
g2712
I1
ss(g2623
g2624
tp2974
(dp2975
g2625
I1
ss(g2624
g2625
tp2976
(dp2977
g2626
I1
ss(g302
g2719
tp2978
(dp2979
g2720
I1
ss(g2724
g2725
tp2980
(dp2981
g2726
I1
ss(g2719
g2720
tp2982
(dp2983
g2721
I1
ss(g2613
g2614
tp2984
(dp2985
g2615
I1
ss(g2691
g2692
tp2986
(dp2987
g2693
I1
ss(g2619
g2620
tp2988
(dp2989
g2621
I1
ss(g2678
g2679
tp2990
(dp2991
g52
I1
ss(g2662
g2663
tp2992
(dp2993
g2664
I1
ss(g2706
g2707
tp2994
(dp2995
g2708
I1
ss(g302
g2588
tp2996
(dp2997
g2589
I1
ss(g2665
g2666
tp2998
(dp2999
g311
I1
ss(g2722
g2723
tp3000
(dp3001
g2724
I1
ss(g2712
g2713
tp3002
(dp3003
g2714
I1
ss(g2693
g52
tp3004
(dp3005
g2694
I1
ss(g2639
g2640
tp3006
(dp3007
g2641
I1
ss(g2600
g2601
tp3008
(dp3009
g2602
I1
ss(g2705
g2706
tp3010
(dp3011
g2707
I1
sssg664
(g2588
g2610
g2668
g2634
g2648
g2613
g2585
g2686
g2719
g2576
g2650
tp3012
sg666
(lp3013
I1
aI3
aI4
aI5
aI6
aI7
aI8
aI10
aI11
aI12
aI13
asg668
I2
sbsg668
I2
sbag1
(g2
g3
Ntp3014
Rp3015
(dp3016
g7
I01
sg8
Vthe forces of medievalism seek a world in which women and minorities are subjugated, in which knowledge is suppressed, in which not life but death is glorified. i am sure of one thing. ultimately they will fail. ultimately, light will penetrate the darkness. to understand what the world would be like with a nuclear-armed iran, just imagine the world with a nuclear-armed al-qaeda. just look at what the iranian regime has done up till now, without nuclear weapons. there are those who believe that a nuclear-armed iran can be deterred like the soviet union. that\u2019s a very dangerous assumption. that\u2019s not just what they believe. that\u2019s what is actually guiding their policies and their actions. and that\u2019s coming from one of the so-called moderates of iran. that\u2019s like saying a nuclear-armed al-qaeda would usher in an era of universal peace. i\u2019ve been speaking about the need to prevent iran from developing nuclear weapons for over 15 years. for nearly a decade, the international community has tried to stop the iranian nuclear program with diplomacy. that hasn\u2019t worked. iran uses diplomatic negotiations as a means to buy time to advance its nuclear program. it\u2019s had an effect on the economy, but we must face the truth. sanctions have not stopped iran\u2019s nuclear program either. red lines don\u2019t lead to war; red lines prevent war. in fact, it\u2019s the failure to place red lines that has often invited aggression. clear red lines have also worked with iran. in contrast, iran could produce the nuclear detonator \u2013 the fuse \u2013 in a lot less time, maybe under a year, maybe only a few months. so if these are the facts, and they are, where should the red line be drawn? the red line should be drawn right here\u2026 each day, that point is getting closer. that\u2019s why i speak today with such a sense of urgency. and that\u2019s why everyone should have a sense of urgency. do we want to risk the security of the world on the assumption that we would find in time a small workshop in a country half the size of europe? i believe that faced with a clear red line, iran will back down. this will give more time for sanctions and diplomacy to convince iran to dismantle its nuclear weapons program altogether. it\u2019s not easy to oppose something that is embraced by the greatest powers in the world. believe me, it would be far easier to remain silent. not being passive means speaking up about those dangers. we have. we are. we will. not being passive also means defending ourselves against those dangers. we have. we are. and we will. yet the jewish people persevered. am israel hai well, of one thing i can assure you: israel will be watching\u2026 closely. now, for some, this story shows that both sides have their extremists and both sides are equally responsible for this seemingly endless conflict. the greatest threat to my country, to our region, and ultimately to our world remains the militant islamic regime of iran.
p3017
sg10
(lp3018
(lp3019
Vthe
p3020
aVforces
p3021
aVof
p3022
aVmedievalism
p3023
aVseek
p3024
ag52
aVworld
p3025
aVin
p3026
aVwhich
p3027
aVwomen
p3028
aVand
p3029
aVminorities
p3030
aVare
p3031
aVsubjugated,
p3032
aVin
p3033
aVwhich
p3034
aVknowledge
p3035
aVis
p3036
aVsuppressed,
p3037
aVin
p3038
aVwhich
p3039
aVnot
p3040
aVlife
p3041
aVbut
p3042
aVdeath
p3043
aVis
p3044
aVglorified.
p3045
aa(lp3046
g37
aVam
p3047
aVsure
p3048
aVof
p3049
aVone
p3050
aVthing.
p3051
aVultimately
p3052
aVthey
p3053
aVwill
p3054
aVfail.
p3055
aVultimately,
p3056
aVlight
p3057
aVwill
p3058
aVpenetrate
p3059
aVthe
p3060
aVdarkness.
p3061
aa(lp3062
Vto
p3063
aVunderstand
p3064
aVwhat
p3065
aVthe
p3066
aVworld
p3067
aVwould
p3068
aVbe
p3069
aVlike
p3070
aVwith
p3071
ag52
aVnuclear-armed
p3072
aViran,
p3073
aVjust
p3074
aVimagine
p3075
aVthe
p3076
aVworld
p3077
aVwith
p3078
ag52
aVnuclear-armed
p3079
aVal-qaeda.
p3080
aa(lp3081
Vjust
p3082
aVlook
p3083
aVat
p3084
aVwhat
p3085
aVthe
p3086
aViranian
p3087
aVregime
p3088
aVhas
p3089
aVdone
p3090
aVup
p3091
aVtill
p3092
aVnow,
p3093
aVwithout
p3094
aVnuclear
p3095
aVweapons.
p3096
aa(lp3097
Vthere
p3098
aVare
p3099
aVthose
p3100
aVwho
p3101
aVbelieve
p3102
aVthat
p3103
ag52
aVnuclear-armed
p3104
aViran
p3105
aVcan
p3106
aVbe
p3107
aVdeterred
p3108
aVlike
p3109
aVthe
p3110
aVsoviet
p3111
aVunion.
p3112
aa(lp3113
Vthat\u2019s
p3114
ag52
aVvery
p3115
aVdangerous
p3116
aVassumption.
p3117
aa(lp3118
Vthat\u2019s
p3119
aVnot
p3120
aVjust
p3121
aVwhat
p3122
aVthey
p3123
aVbelieve.
p3124
aVthat\u2019s
p3125
aVwhat
p3126
aVis
p3127
aVactually
p3128
aVguiding
p3129
aVtheir
p3130
aVpolicies
p3131
aVand
p3132
aVtheir
p3133
aVactions.
p3134
aa(lp3135
Vand
p3136
aVthat\u2019s
p3137
aVcoming
p3138
aVfrom
p3139
aVone
p3140
aVof
p3141
aVthe
p3142
aVso-called
p3143
aVmoderates
p3144
aVof
p3145
aViran.
p3146
aa(lp3147
Vthat\u2019s
p3148
aVlike
p3149
aVsaying
p3150
ag52
aVnuclear-armed
p3151
aVal-qaeda
p3152
aVwould
p3153
aVusher
p3154
aVin
p3155
aVan
p3156
aVera
p3157
aVof
p3158
aVuniversal
p3159
aVpeace.
p3160
aa(lp3161
Vi\u2019ve
p3162
aVbeen
p3163
aVspeaking
p3164
aVabout
p3165
aVthe
p3166
aVneed
p3167
aVto
p3168
aVprevent
p3169
aViran
p3170
aVfrom
p3171
aVdeveloping
p3172
aVnuclear
p3173
aVweapons
p3174
aVfor
p3175
aVover
p3176
aV15
p3177
aVyears.
p3178
aa(lp3179
Vfor
p3180
aVnearly
p3181
ag52
aVdecade,
p3182
aVthe
p3183
aVinternational
p3184
aVcommunity
p3185
aVhas
p3186
aVtried
p3187
aVto
p3188
aVstop
p3189
aVthe
p3190
aViranian
p3191
aVnuclear
p3192
aVprogram
p3193
aVwith
p3194
aVdiplomacy.
p3195
aa(lp3196
Vthat
p3197
aVhasn\u2019t
p3198
aVworked.
p3199
aa(lp3200
Viran
p3201
aVuses
p3202
aVdiplomatic
p3203
aVnegotiations
p3204
aVas
p3205
ag52
aVmeans
p3206
aVto
p3207
aVbuy
p3208
aVtime
p3209
aVto
p3210
aVadvance
p3211
aVits
p3212
aVnuclear
p3213
aVprogram.
p3214
aa(lp3215
Vit\u2019s
p3216
aVhad
p3217
aVan
p3218
aVeffect
p3219
aVon
p3220
aVthe
p3221
aVeconomy,
p3222
aVbut
p3223
aVwe
p3224
aVmust
p3225
aVface
p3226
aVthe
p3227
aVtruth.
p3228
aVsanctions
p3229
aVhave
p3230
aVnot
p3231
aVstopped
p3232
aViran\u2019s
p3233
aVnuclear
p3234
aVprogram
p3235
aVeither.
p3236
aa(lp3237
Vred
p3238
aVlines
p3239
aVdon\u2019t
p3240
aVlead
p3241
aVto
p3242
aVwar;
p3243
aVred
p3244
aVlines
p3245
aVprevent
p3246
aVwar.
p3247
aa(lp3248
Vin
p3249
aVfact,
p3250
aVit\u2019s
p3251
aVthe
p3252
aVfailure
p3253
aVto
p3254
aVplace
p3255
aVred
p3256
aVlines
p3257
aVthat
p3258
aVhas
p3259
aVoften
p3260
aVinvited
p3261
aVaggression.
p3262
aa(lp3263
Vclear
p3264
aVred
p3265
aVlines
p3266
aVhave
p3267
aValso
p3268
aVworked
p3269
aVwith
p3270
aViran.
p3271
aa(lp3272
Vin
p3273
aVcontrast,
p3274
aViran
p3275
aVcould
p3276
aVproduce
p3277
aVthe
p3278
aVnuclear
p3279
aVdetonator
p3280
aV\u2013
p3281
aVthe
p3282
aVfuse
p3283
aV\u2013
p3284
aVin
p3285
ag52
aVlot
p3286
aVless
p3287
aVtime,
p3288
aVmaybe
p3289
aVunder
p3290
ag52
aVyear,
p3291
aVmaybe
p3292
aVonly
p3293
ag52
aVfew
p3294
aVmonths.
p3295
aa(lp3296
Vso
p3297
aVif
p3298
aVthese
p3299
aVare
p3300
aVthe
p3301
aVfacts,
p3302
aVand
p3303
aVthey
p3304
aVare,
p3305
aVwhere
p3306
aVshould
p3307
aVthe
p3308
aVred
p3309
aVline
p3310
aVbe
p3311
aVdrawn?
p3312
aa(lp3313
Vthe
p3314
aVred
p3315
aVline
p3316
aVshould
p3317
aVbe
p3318
aVdrawn
p3319
aVright
p3320
aVhere\u2026
p3321
aa(lp3322
Veach
p3323
aVday,
p3324
aVthat
p3325
aVpoint
p3326
aVis
p3327
aVgetting
p3328
aVcloser.
p3329
aVthat\u2019s
p3330
aVwhy
p3331
ag37
aVspeak
p3332
aVtoday
p3333
aVwith
p3334
aVsuch
p3335
ag52
aVsense
p3336
aVof
p3337
aVurgency.
p3338
aVand
p3339
aVthat\u2019s
p3340
aVwhy
p3341
aVeveryone
p3342
aVshould
p3343
aVhave
p3344
ag52
aVsense
p3345
aVof
p3346
aVurgency.
p3347
aa(lp3348
Vdo
p3349
aVwe
p3350
aVwant
p3351
aVto
p3352
aVrisk
p3353
aVthe
p3354
aVsecurity
p3355
aVof
p3356
aVthe
p3357
aVworld
p3358
aVon
p3359
aVthe
p3360
aVassumption
p3361
aVthat
p3362
aVwe
p3363
aVwould
p3364
aVfind
p3365
aVin
p3366
aVtime
p3367
ag52
aVsmall
p3368
aVworkshop
p3369
aVin
p3370
ag52
aVcountry
p3371
aVhalf
p3372
aVthe
p3373
aVsize
p3374
aVof
p3375
aVeurope?
p3376
aa(lp3377
g37
aVbelieve
p3378
aVthat
p3379
aVfaced
p3380
aVwith
p3381
ag52
aVclear
p3382
aVred
p3383
aVline,
p3384
aViran
p3385
aVwill
p3386
aVback
p3387
aVdown.
p3388
aa(lp3389
Vthis
p3390
aVwill
p3391
aVgive
p3392
aVmore
p3393
aVtime
p3394
aVfor
p3395
aVsanctions
p3396
aVand
p3397
aVdiplomacy
p3398
aVto
p3399
aVconvince
p3400
aViran
p3401
aVto
p3402
aVdismantle
p3403
aVits
p3404
aVnuclear
p3405
aVweapons
p3406
aVprogram
p3407
aValtogether.
p3408
aa(lp3409
Vit\u2019s
p3410
aVnot
p3411
aVeasy
p3412
aVto
p3413
aVoppose
p3414
aVsomething
p3415
aVthat
p3416
aVis
p3417
aVembraced
p3418
aVby
p3419
aVthe
p3420
aVgreatest
p3421
aVpowers
p3422
aVin
p3423
aVthe
p3424
aVworld.
p3425
aVbelieve
p3426
aVme,
p3427
aVit
p3428
aVwould
p3429
aVbe
p3430
aVfar
p3431
aVeasier
p3432
aVto
p3433
aVremain
p3434
aVsilent.
p3435
aa(lp3436
Vnot
p3437
aVbeing
p3438
aVpassive
p3439
aVmeans
p3440
aVspeaking
p3441
aVup
p3442
aVabout
p3443
aVthose
p3444
aVdangers.
p3445
aVwe
p3446
aVhave.
p3447
aVwe
p3448
aVare.
p3449
aVwe
p3450
aVwill.
p3451
aa(lp3452
Vnot
p3453
aVbeing
p3454
aVpassive
p3455
aValso
p3456
aVmeans
p3457
aVdefending
p3458
aVourselves
p3459
aVagainst
p3460
aVthose
p3461
aVdangers.
p3462
aVwe
p3463
aVhave.
p3464
aVwe
p3465
aVare.
p3466
aVand
p3467
aVwe
p3468
aVwill.
p3469
aa(lp3470
Vyet
p3471
aVthe
p3472
aVjewish
p3473
aVpeople
p3474
aVpersevered.
p3475
aa(lp3476
Vam
p3477
aVisrael
p3478
aVhai
p3479
aa(lp3480
Vwell,
p3481
aVof
p3482
aVone
p3483
aVthing
p3484
ag37
aVcan
p3485
aVassure
p3486
aVyou:
p3487
aVisrael
p3488
aVwill
p3489
aVbe
p3490
aVwatching\u2026
p3491
aVclosely.
p3492
aa(lp3493
Vnow,
p3494
aVfor
p3495
aVsome,
p3496
aVthis
p3497
aVstory
p3498
aVshows
p3499
aVthat
p3500
aVboth
p3501
aVsides
p3502
aVhave
p3503
aVtheir
p3504
aVextremists
p3505
aVand
p3506
aVboth
p3507
aVsides
p3508
aVare
p3509
aVequally
p3510
aVresponsible
p3511
aVfor
p3512
aVthis
p3513
aVseemingly
p3514
aVendless
p3515
aVconflict.
p3516
aa(lp3517
Vthe
p3518
aVgreatest
p3519
aVthreat
p3520
aVto
p3521
aVmy
p3522
aVcountry,
p3523
aVto
p3524
aVour
p3525
aVregion,
p3526
aVand
p3527
aVultimately
p3528
aVto
p3529
aVour
p3530
aVworld
p3531
aVremains
p3532
aVthe
p3533
aVmilitant
p3534
aVislamic
p3535
aVregime
p3536
aVof
p3537
aViran.
p3538
aasg239
g1
(g240
g3
Ntp3539
Rp3540
(dp3541
g244
(dp3542
(g3420
g3421
tp3543
(dp3544
g3422
I1
sg3520
I1
ss(g3331
g37
tp3545
(dp3546
g3332
I1
ss(g3398
g3399
tp3547
(dp3548
g3400
I1
ss(g3157
g3158
tp3549
(dp3550
g3159
I1
ss(g3365
g3366
tp3551
(dp3552
g3367
I1
ss(g3137
g3138
tp3553
(dp3554
g3139
I1
ss(g3193
g3194
tp3555
(dp3556
g3195
I1
ss(g3176
g3177
tp3557
(dp3558
g3178
I1
ss(g3478
g3479
tp3559
(dp3560
g311
I1
ss(g3023
g3024
tp3561
(dp3562
g52
I1
ss(g52
g3291
tp3563
(dp3564
g3292
I1
ss(g3155
g3156
tp3565
(dp3566
g3157
I1
ss(g3372
g3373
tp3567
(dp3568
g3374
I1
ss(g3390
g3391
tp3569
(dp3570
g3392
I1
ss(g3330
g3331
tp3571
(dp3572
g37
I1
sg3342
I1
ss(g3066
g3067
tp3573
(dp3574
g3359
I1
sg3078
I1
sg3068
I1
ss(g3499
g3500
tp3575
(dp3576
g3501
I1
ss(g3163
g3164
tp3577
(dp3578
g3165
I1
ss(g3064
g3065
tp3579
(dp3580
g3066
I1
ss(g3110
g3111
tp3581
(dp3582
g3112
I1
ss(g3123
g3124
tp3583
(dp3584
g3125
I1
ss(g3165
g3166
tp3585
(dp3586
g3167
I1
ss(g3449
g3450
tp3587
(dp3588
g3451
I1
ss(g3056
g3057
tp3589
(dp3590
g3058
I1
ss(g3276
g3277
tp3591
(dp3592
g3278
I1
ss(g3458
g3459
tp3593
(dp3594
g3460
I1
ss(g3430
g3431
tp3595
(dp3596
g3432
I1
ss(g3287
g3288
tp3597
(dp3598
g3289
I1
ss(g3416
g3417
tp3599
(dp3600
g3418
I1
ss(g3086
g3087
tp3601
(dp3602
g3192
I1
sg3088
I1
ss(g3439
g3440
tp3603
(dp3604
g3441
I1
ss(g3141
g3142
tp3605
(dp3606
g3143
I1
sg3358
I1
ss(g3525
g3526
tp3607
(dp3608
g3527
I1
ss(g3260
g3261
tp3609
(dp3610
g3262
I1
ss(g3059
g3060
tp3611
(dp3612
g3061
I1
ss(g3153
g3154
tp3613
(dp3614
g3155
I1
ss(g3335
g52
tp3615
(dp3616
g3336
I1
ss(g3042
g3043
tp3617
(dp3618
g3044
I1
ss(g3395
g3396
tp3619
(dp3620
g3397
I1
ss(g3225
g3226
tp3621
(dp3622
g3227
I1
ss(g52
g3206
tp3623
(dp3624
g3207
I1
ss(g3111
g3112
tp3625
(dp3626
g311
I1
ss(g3392
g3393
tp3627
(dp3628
g3394
I1
ss(g3515
g3516
tp3629
(dp3630
g311
I1
ss(g3218
g3219
tp3631
(dp3632
g3220
I1
ss(g3298
g3299
tp3633
(dp3634
g3300
I1
ss(g3043
g3044
tp3635
(dp3636
g3045
I1
ss(g3170
g3171
tp3637
(dp3638
g3172
I1
ss(g3021
g3022
tp3639
(dp3640
g3023
I1
ss(g3130
g3131
tp3641
(dp3642
g3132
I1
ss(g3495
g3496
tp3643
(dp3644
g3497
I1
ss(g3394
g3395
tp3645
(dp3646
g3396
I1
ss(g3342
g3343
tp3647
(dp3648
g3344
I1
ss(g3343
g3344
tp3649
(dp3650
g52
I1
ss(g3456
g3457
tp3651
(dp3652
g3458
I1
ss(g3319
g3320
tp3653
(dp3654
g3321
I1
ss(g3334
g3335
tp3655
(dp3656
g52
I1
ss(g3047
g3048
tp3657
(dp3658
g3049
I1
ss(g302
g3437
tp3659
(dp3660
g3438
I2
ss(g3506
g3507
tp3661
(dp3662
g3508
I1
ss(g3104
g3105
tp3663
(dp3664
g3106
I1
ss(g3228
g3229
tp3665
(dp3666
g3230
I1
ss(g3361
g3362
tp3667
(dp3668
g3363
I1
ss(g3422
g3423
tp3669
(dp3670
g3424
I1
ss(g3509
g3510
tp3671
(dp3672
g3511
I1
ss(g3269
g3270
tp3673
(dp3674
g3271
I1
ss(g3293
g52
tp3675
(dp3676
g3294
I1
ss(g3522
g3523
tp3677
(dp3678
g3524
I1
ss(g3369
g3370
tp3679
(dp3680
g52
I1
ss(g3273
g3274
tp3681
(dp3682
g3275
I1
ss(g3183
g3184
tp3683
(dp3684
g3185
I1
ss(g302
g3201
tp3685
(dp3686
g3202
I1
ss(g3297
g3298
tp3687
(dp3688
g3299
I1
ss(g3289
g3290
tp3689
(dp3690
g52
I1
ss(g3127
g3128
tp3691
(dp3692
g3129
I1
ss(g3290
g52
tp3693
(dp3694
g3291
I1
ss(g3120
g3121
tp3695
(dp3696
g3122
I1
ss(g3396
g3397
tp3697
(dp3698
g3398
I1
ss(g3259
g3260
tp3699
(dp3700
g3261
I1
ss(g3241
g3242
tp3701
(dp3702
g3243
I1
ss(g3471
g3472
tp3703
(dp3704
g3473
I1
ss(g3504
g3505
tp3705
(dp3706
g3506
I1
ss(g3333
g3334
tp3707
(dp3708
g3335
I1
ss(g3502
g3503
tp3709
(dp3710
g3504
I1
ss(g3102
g3103
tp3711
(dp3712
g52
I1
sg3380
I1
ss(g3358
g3359
tp3713
(dp3714
g3360
I1
ss(g3192
g3193
tp3715
(dp3716
g3236
I1
sg3194
I1
ss(g3294
g3295
tp3717
(dp3718
g311
I1
ss(g3217
g3218
tp3719
(dp3720
g3219
I1
ss(g3445
g3446
tp3721
(dp3722
g3447
I2
ss(g3035
g3036
tp3723
(dp3724
g3037
I1
ss(g3189
g3190
tp3725
(dp3726
g3191
I1
ss(g3067
g3068
tp3727
(dp3728
g3069
I1
ss(g3424
g3425
tp3729
(dp3730
g3426
I1
ss(g3069
g3070
tp3731
(dp3732
g3071
I1
ss(g3177
g3178
tp3733
(dp3734
g311
I1
ss(g3186
g3187
tp3735
(dp3736
g3188
I1
ss(g3403
g3404
tp3737
(dp3738
g3405
I1
ss(g3441
g3442
tp3739
(dp3740
g3443
I1
ss(g3352
g3353
tp3741
(dp3742
g3354
I1
ss(g3054
g3055
tp3743
(dp3744
g3056
I1
ss(g3500
g3501
tp3745
(dp3746
g3502
I1
ss(g3092
g3093
tp3747
(dp3748
g3094
I1
ss(g3108
g3109
tp3749
(dp3750
g3110
I1
ss(g3380
g3381
tp3751
(dp3752
g52
I1
ss(g302
g3481
tp3753
(dp3754
g3482
I1
ss(g3030
g3031
tp3755
(dp3756
g3032
I1
ss(g3366
g3367
tp3757
(dp3758
g52
I1
ss(g3324
g3325
tp3759
(dp3760
g3326
I1
ss(g3485
g3486
tp3761
(dp3762
g3487
I1
ss(g3375
g3376
tp3763
(dp3764
g311
I1
ss(g3387
g3388
tp3765
(dp3766
g311
I1
ss(g3497
g3498
tp3767
(dp3768
g3499
I1
ss(g3052
g3053
tp3769
(dp3770
g3054
I1
ss(g3423
g3424
tp3771
(dp3772
g3425
I1
ss(g3098
g3099
tp3773
(dp3774
g3100
I1
ss(g3410
g3411
tp3775
(dp3776
g3412
I1
ss(g3149
g3150
tp3777
(dp3778
g52
I1
ss(g3072
g3073
tp3779
(dp3780
g3074
I1
ss(g3148
g3149
tp3781
(dp3782
g3150
I1
ss(g3129
g3130
tp3783
(dp3784
g3131
I1
ss(g3132
g3133
tp3785
(dp3786
g3134
I1
ss(g3280
g3281
tp3787
(dp3788
g3282
I1
ss(g3533
g3534
tp3789
(dp3790
g3535
I1
ss(g37
g3378
tp3791
(dp3792
g3379
I1
ss(g3481
g3482
tp3793
(dp3794
g3483
I1
ss(g3275
g3276
tp3795
(dp3796
g3277
I1
ss(g3460
g3461
tp3797
(dp3798
g3462
I1
ss(g3208
g3209
tp3799
(dp3800
g3210
I1
ss(g3197
g3198
tp3801
(dp3802
g3199
I1
ss(g3326
g3327
tp3803
(dp3804
g3328
I1
ss(g3191
g3192
tp3805
(dp3806
g3193
I1
ss(g3091
g3092
tp3807
(dp3808
g3093
I1
ss(g3172
g3173
tp3809
(dp3810
g3174
I1
ss(g3489
g3490
tp3811
(dp3812
g3491
I1
ss(g302
g3098
tp3813
(dp3814
g3099
I1
ss(g3212
g3213
tp3815
(dp3816
g3406
I1
sg3214
I1
ss(g3491
g3492
tp3817
(dp3818
g311
I1
ss(g3467
g3468
tp3819
(dp3820
g3469
I1
ss(g3519
g3520
tp3821
(dp3822
g3521
I1
ss(g3367
g52
tp3823
(dp3824
g3368
I1
ss(g3303
g3304
tp3825
(dp3826
g3305
I1
ss(g3288
g3289
tp3827
(dp3828
g3290
I1
ss(g302
g3264
tp3829
(dp3830
g3265
I1
ss(g302
g3249
tp3831
(dp3832
g3274
I1
sg3250
I1
ss(g3166
g3167
tp3833
(dp3834
g3168
I1
ss(g3074
g3075
tp3835
(dp3836
g3076
I1
ss(g3024
g52
tp3837
(dp3838
g3025
I1
ss(g3162
g3163
tp3839
(dp3840
g3164
I1
ss(g3307
g3308
tp3841
(dp3842
g3309
I1
ss(g3159
g3160
tp3843
(dp3844
g311
I1
ss(g3284
g3285
tp3845
(dp3846
g52
I1
ss(g3094
g3095
tp3847
(dp3848
g3096
I1
ss(g3142
g3143
tp3849
(dp3850
g3144
I1
ss(g3532
g3533
tp3851
(dp3852
g3534
I1
ss(g52
g3294
tp3853
(dp3854
g3295
I1
ss(g3048
g3049
tp3855
(dp3856
g3050
I1
ss(g302
g3349
tp3857
(dp3858
g3350
I1
ss(g3175
g3176
tp3859
(dp3860
g3177
I1
ss(g3144
g3145
tp3861
(dp3862
g3146
I1
ss(g3105
g3106
tp3863
(dp3864
g3107
I1
ss(g3107
g3108
tp3865
(dp3866
g3109
I1
ss(g3022
g3023
tp3867
(dp3868
g3024
I1
ss(g3181
g52
tp3869
(dp3870
g3182
I1
ss(g3235
g3236
tp3871
(dp3872
g311
I1
ss(g3257
g3258
tp3873
(dp3874
g3259
I1
ss(g3207
g3208
tp3875
(dp3876
g3209
I1
ss(g3511
g3512
tp3877
(dp3878
g3513
I1
ss(g3239
g3240
tp3879
(dp3880
g3241
I1
ss(g3432
g3433
tp3881
(dp3882
g3434
I1
ss(g3523
g3524
tp3883
(dp3884
g3525
I1
ss(g3486
g3487
tp3885
(dp3886
g3488
I1
ss(g3401
g3402
tp3887
(dp3888
g3403
I1
ss(g3508
g3509
tp3889
(dp3890
g3510
I1
ss(g3393
g3394
tp3891
(dp3892
g3395
I1
ss(g3204
g3205
tp3893
(dp3894
g52
I1
ss(g3362
g3363
tp3895
(dp3896
g3364
I1
ss(g3300
g3301
tp3897
(dp3898
g3302
I1
ss(g3374
g3375
tp3899
(dp3900
g3376
I1
ss(g3026
g3027
tp3901
(dp3902
g3040
I1
sg3035
I1
sg3028
I1
ss(g3299
g3300
tp3903
(dp3904
g3301
I1
ss(g3418
g3419
tp3905
(dp3906
g3420
I1
ss(g3158
g3159
tp3907
(dp3908
g3160
I1
ss(g3145
g3146
tp3909
(dp3910
g311
I2
ss(g3501
g3502
tp3911
(dp3912
g3509
I1
sg3503
I1
ss(g3316
g3317
tp3913
(dp3914
g3318
I1
ss(g3368
g3369
tp3915
(dp3916
g3370
I1
ss(g3270
g3271
tp3917
(dp3918
g311
I1
ss(g3031
g3032
tp3919
(dp3920
g3033
I1
ss(g37
g3332
tp3921
(dp3922
g3333
I1
ss(g302
g37
tp3923
(dp3924
g3378
I1
sg3047
I1
ss(g3254
g3255
tp3925
(dp3926
g3256
I1
ss(g302
g3136
tp3927
(dp3928
g3137
I1
ss(g3223
g3224
tp3929
(dp3930
g3225
I1
ss(g3527
g3528
tp3931
(dp3932
g3529
I1
ss(g3407
g3408
tp3933
(dp3934
g311
I1
ss(g302
g3216
tp3935
(dp3936
g3411
I1
sg3217
I1
ss(g3209
g3210
tp3937
(dp3938
g3211
I1
ss(g3180
g3181
tp3939
(dp3940
g52
I1
ss(g3317
g3318
tp3941
(dp3942
g3319
I1
ss(g3070
g3071
tp3943
(dp3944
g52
I1
ss(g3036
g3037
tp3945
(dp3946
g3038
I1
ss(g3049
g3050
tp3947
(dp3948
g3484
I1
sg3051
I1
ss(g3060
g3061
tp3949
(dp3950
g311
I1
ss(g302
g3297
tp3951
(dp3952
g3298
I1
ss(g3425
g3426
tp3953
(dp3954
g3427
I1
ss(g3419
g3420
tp3955
(dp3956
g3421
I1
ss(g3536
g3537
tp3957
(dp3958
g3538
I1
ss(g3051
g3052
tp3959
(dp3960
g3053
I1
ss(g3227
g3228
tp3961
(dp3962
g3229
I1
ss(g3250
g3251
tp3963
(dp3964
g3252
I1
ss(g3446
g3447
tp3965
(dp3966
g3448
I2
ss(g3318
g3319
tp3967
(dp3968
g3320
I1
ss(g52
g3072
tp3969
(dp3970
g3073
I1
sg3105
I1
sg3080
I1
sg3152
I1
ss(g3068
g3069
tp3971
(dp3972
g3431
I1
sg3070
I1
ss(g3443
g3444
tp3973
(dp3974
g3445
I1
ss(g3119
g3120
tp3975
(dp3976
g3121
I1
ss(g3088
g3089
tp3977
(dp3978
g3090
I1
ss(g3278
g3279
tp3979
(dp3980
g3280
I1
ss(g3071
g52
tp3981
(dp3982
g3072
I2
sg3382
I1
ss(g3058
g3059
tp3983
(dp3984
g3060
I1
ss(g3305
g3306
tp3985
(dp3986
g3307
I1
ss(g3226
g3227
tp3987
(dp3988
g3228
I1
ss(g3490
g3491
tp3989
(dp3990
g3492
I1
ss(g3427
g3428
tp3991
(dp3992
g3429
I1
ss(g3154
g3155
tp3993
(dp3994
g3156
I1
ss(g52
g3025
tp3995
(dp3996
g3026
I1
ss(g3233
g3234
tp3997
(dp3998
g3235
I1
ss(g3034
g3035
tp3999
(dp4000
g3036
I1
ss(g3122
g3123
tp4001
(dp4002
g3124
I1
ss(g3496
g3497
tp4003
(dp4004
g3498
I1
ss(g3414
g3415
tp4005
(dp4006
g3416
I1
ss(g3421
g3422
tp4007
(dp4008
g3423
I1
ss(g3268
g3269
tp4009
(dp4010
g3270
I1
ss(g3473
g3474
tp4011
(dp4012
g3475
I1
ss(g3140
g3141
tp4013
(dp4014
g3142
I1
ss(g3222
g3223
tp4015
(dp4016
g3224
I1
ss(g3349
g3350
tp4017
(dp4018
g3351
I1
ss(g3039
g3040
tp4019
(dp4020
g3041
I1
ss(g3474
g3475
tp4021
(dp4022
g311
I1
ss(g3412
g3413
tp4023
(dp4024
g3414
I1
ss(g52
g3336
tp4025
(dp4026
g3337
I2
ss(g3484
g37
tp4027
(dp4028
g3485
I1
ss(g3029
g3030
tp4029
(dp4030
g3031
I1
ss(g3510
g3511
tp4031
(dp4032
g3512
I1
ss(g3373
g3374
tp4033
(dp4034
g3375
I1
ss(g3363
g3364
tp4035
(dp4036
g3365
I1
ss(g3201
g3202
tp4037
(dp4038
g3203
I1
ss(g3309
g3310
tp4039
(dp4040
g3311
I1
sg3317
I1
ss(g3304
g3305
tp4041
(dp4042
g3306
I1
ss(g3442
g3443
tp4043
(dp4044
g3444
I1
ss(g3341
g3342
tp4045
(dp4046
g3343
I1
ss(g302
g3197
tp4047
(dp4048
g3198
I1
ss(g3391
g3392
tp4049
(dp4050
g3393
I1
ss(g3156
g3157
tp4051
(dp4052
g3158
I1
ss(g3169
g3170
tp4053
(dp4054
g3171
I1
ss(g3371
g3372
tp4055
(dp4056
g3373
I1
ss(g3063
g3064
tp4057
(dp4058
g3065
I1
ss(g302
g3162
tp4059
(dp4060
g3163
I1
ss(g3406
g3407
tp4061
(dp4062
g3408
I1
ss(g3253
g3254
tp4063
(dp4064
g3255
I1
ss(g3528
g3529
tp4065
(dp4066
g3530
I1
ss(g3065
g3066
tp4067
(dp4068
g3067
I1
sg3087
I1
ss(g3095
g3096
tp4069
(dp4070
g311
I1
ss(g3385
g3386
tp4071
(dp4072
g3387
I1
ss(g3101
g3102
tp4073
(dp4074
g3103
I1
ss(g3075
g3076
tp4075
(dp4076
g3077
I1
ss(g3329
g3330
tp4077
(dp4078
g3331
I1
ss(g3073
g3074
tp4079
(dp4080
g3075
I1
ss(g302
g3180
tp4081
(dp4082
g3181
I1
ss(g3174
g3175
tp4083
(dp4084
g3176
I1
ss(g3399
g3400
tp4085
(dp4086
g3401
I1
ss(g3364
g3365
tp4087
(dp4088
g3366
I1
ss(g37
g3485
tp4089
(dp4090
g3486
I1
ss(g3053
g3054
tp4091
(dp4092
g3055
I1
ss(g3472
g3473
tp4093
(dp4094
g3474
I1
ss(g3173
g3174
tp4095
(dp4096
g3407
I1
sg3175
I1
ss(g3286
g3287
tp4097
(dp4098
g3288
I1
ss(g52
g3382
tp4099
(dp4100
g3383
I1
ss(g3402
g3403
tp4101
(dp4102
g3404
I1
ss(g3138
g3139
tp4103
(dp4104
g3140
I1
ss(g3032
g3033
tp4105
(dp4106
g3034
I1
ss(g302
g3063
tp4107
(dp4108
g3064
I1
ss(g3291
g3292
tp4109
(dp4110
g3293
I1
ss(g302
g3323
tp4111
(dp4112
g3324
I1
ss(g3020
g3021
tp4113
(dp4114
g3022
I1
ss(g3232
g3233
tp4115
(dp4116
g3234
I1
ss(g3100
g3101
tp4117
(dp4118
g3102
I1
ss(g3150
g52
tp4119
(dp4120
g3151
I1
ss(g3027
g3028
tp4121
(dp4122
g3029
I1
ss(g3338
g3339
tp4123
(dp4124
g3340
I1
ss(g3483
g3484
tp4125
(dp4126
g37
I1
ss(g3238
g3239
tp4127
(dp4128
g3246
I1
sg3240
I1
sg3267
I1
sg3258
I1
ss(g3198
g3199
tp4129
(dp4130
g311
I1
ss(g3124
g3125
tp4131
(dp4132
g3126
I1
ss(g3530
g3531
tp4133
(dp4134
g3532
I1
ss(g3417
g3418
tp4135
(dp4136
g3419
I1
ss(g3240
g3241
tp4137
(dp4138
g3242
I1
ss(g3182
g3183
tp4139
(dp4140
g3184
I1
ss(g3426
g3427
tp4141
(dp4142
g3428
I1
ss(g3084
g3085
tp4143
(dp4144
g3086
I1
ss(g3302
g3303
tp4145
(dp4146
g3304
I1
ss(g52
g3371
tp4147
(dp4148
g3372
I1
ss(g3531
g3532
tp4149
(dp4150
g3533
I1
ss(g3344
g52
tp4151
(dp4152
g3345
I1
ss(g3103
g52
tp4153
(dp4154
g3104
I1
ss(g3434
g3435
tp4155
(dp4156
g311
I1
ss(g3336
g3337
tp4157
(dp4158
g3338
I2
ss(g3188
g3189
tp4159
(dp4160
g3190
I1
ss(g3116
g3117
tp4161
(dp4162
g311
I1
ss(g3386
g3387
tp4163
(dp4164
g3388
I1
ss(g3242
g3243
tp4165
(dp4166
g3244
I1
ss(g3415
g3416
tp4167
(dp4168
g3417
I1
ss(g3245
g3246
tp4169
(dp4170
g3247
I1
ss(g3384
g3385
tp4171
(dp4172
g3386
I1
ss(g3306
g3307
tp4173
(dp4174
g3308
I1
ss(g3466
g3467
tp4175
(dp4176
g3468
I1
ss(g3332
g3333
tp4177
(dp4178
g3334
I1
ss(g3360
g3361
tp4179
(dp4180
g3362
I1
ss(g3267
g3268
tp4181
(dp4182
g3269
I1
ss(g3213
g3214
tp4183
(dp4184
g311
I1
ss(g3219
g3220
tp4185
(dp4186
g3221
I1
ss(g52
g3368
tp4187
(dp4188
g3369
I1
ss(g3151
g3152
tp4189
(dp4190
g3153
I1
ss(g3133
g3134
tp4191
(dp4192
g311
I1
ss(g3535
g3536
tp4193
(dp4194
g3537
I1
ss(g3282
g3283
tp4195
(dp4196
g3284
I1
ss(g3514
g3515
tp4197
(dp4198
g3516
I1
ss(g302
g3238
tp4199
(dp4200
g3239
I1
ss(g302
g302
tp4201
(dp4202
g3136
I1
sg3098
I1
sg3082
I1
sg3477
I1
sg3162
I1
sg3249
I2
sg3471
I1
sg3494
I1
sg3180
I1
sg3216
I2
sg3063
I1
sg3238
I1
sg3349
I1
sg3201
I1
sg3114
I3
sg3197
I1
sg3437
I2
sg3481
I1
sg37
I2
sg3264
I1
sg3390
I1
sg3297
I1
sg3323
I1
sg3020
I3
ss(g302
g3082
tp4203
(dp4204
g3083
I1
ss(g3494
g3495
tp4205
(dp4206
g3496
I1
ss(g3524
g3525
tp4207
(dp4208
g3531
I1
sg3526
I1
ss(g3131
g3132
tp4209
(dp4210
g3133
I1
ss(g3202
g3203
tp4211
(dp4212
g3204
I1
ss(g302
g3390
tp4213
(dp4214
g3391
I1
ss(g3512
g3513
tp4215
(dp4216
g3514
I1
ss(g3310
g3311
tp4217
(dp4218
g3312
I1
ss(g3428
g3429
tp4219
(dp4220
g3430
I1
ss(g3028
g3029
tp4221
(dp4222
g3030
I1
ss(g3354
g3355
tp4223
(dp4224
g3356
I1
ss(g3413
g3414
tp4225
(dp4226
g3415
I1
ss(g3251
g3252
tp4227
(dp4228
g3253
I1
ss(g3447
g3448
tp4229
(dp4230
g3449
I2
ss(g3090
g3091
tp4231
(dp4232
g3092
I1
ss(g3205
g52
tp4233
(dp4234
g3206
I1
ss(g3521
g3522
tp4235
(dp4236
g3523
I1
ss(g3050
g3051
tp4237
(dp4238
g3052
I1
ss(g3274
g3275
tp4239
(dp4240
g3276
I1
ss(g3229
g3230
tp4241
(dp4242
g3231
I1
ss(g3323
g3324
tp4243
(dp4244
g3325
I1
ss(g3457
g3458
tp4245
(dp4246
g3459
I1
ss(g3379
g3380
tp4247
(dp4248
g3381
I1
ss(g3505
g3506
tp4249
(dp4250
g3507
I1
ss(g3526
g3527
tp4251
(dp4252
g3528
I1
ss(g3057
g3058
tp4253
(dp4254
g3059
I1
ss(g3350
g3351
tp4255
(dp4256
g3352
I1
ss(g3252
g3253
tp4257
(dp4258
g3254
I1
ss(g3411
g3412
tp4259
(dp4260
g3413
I1
ss(g302
g3020
tp4261
(dp4262
g3315
I1
sg3021
I1
sg3519
I1
ss(g3077
g3078
tp4263
(dp4264
g52
I1
ss(g3455
g3456
tp4265
(dp4266
g3457
I1
ss(g3450
g3451
tp4267
(dp4268
g311
I2
ss(g3503
g3504
tp4269
(dp4270
g3505
I1
ss(g3168
g3169
tp4271
(dp4272
g3170
I1
ss(g3184
g3185
tp4273
(dp4274
g3186
I1
ss(g3328
g3329
tp4275
(dp4276
g3330
I1
ss(g3383
g3384
tp4277
(dp4278
g3385
I1
ss(g3211
g3212
tp4279
(dp4280
g3213
I1
ss(g3534
g3535
tp4281
(dp4282
g3536
I1
ss(g52
g3286
tp4283
(dp4284
g3287
I1
ss(g3311
g3312
tp4285
(dp4286
g311
I1
ss(g3397
g3398
tp4287
(dp4288
g3399
I1
ss(g3099
g3100
tp4289
(dp4290
g3101
I1
ss(g3136
g3137
tp4291
(dp4292
g3341
I1
sg3138
I1
ss(g3194
g3195
tp4293
(dp4294
g311
I1
ss(g3114
g52
tp4295
(dp4296
g3115
I1
ss(g3320
g3321
tp4297
(dp4298
g311
I1
ss(g3459
g3460
tp4299
(dp4300
g3461
I1
ss(g3400
g3401
tp4301
(dp4302
g3402
I1
ss(g3115
g3116
tp4303
(dp4304
g3117
I1
ss(g3224
g3225
tp4305
(dp4306
g3226
I1
ss(g3087
g3088
tp4307
(dp4308
g3089
I1
ss(g3266
g3267
tp4309
(dp4310
g3268
I1
ss(g302
g3114
tp4311
(dp4312
g52
I1
sg3120
I1
sg3149
I1
ss(g3128
g3129
tp4313
(dp4314
g3130
I1
ss(g3437
g3438
tp4315
(dp4316
g3439
I2
ss(g37
g3047
tp4317
(dp4318
g3048
I1
ss(g3106
g3107
tp4319
(dp4320
g3108
I1
ss(g3261
g3262
tp4321
(dp4322
g311
I1
ss(g3308
g3309
tp4323
(dp4324
g3310
I2
ss(g3040
g3041
tp4325
(dp4326
g3042
I1
ss(g3041
g3042
tp4327
(dp4328
g3043
I1
ss(g3044
g3045
tp4329
(dp4330
g311
I1
ss(g3279
g3280
tp4331
(dp4332
g3281
I1
ss(g3283
g3284
tp4333
(dp4334
g3285
I1
ss(g3167
g3168
tp4335
(dp4336
g3169
I1
ss(g3258
g3259
tp4337
(dp4338
g3260
I1
ss(g3255
g3256
tp4339
(dp4340
g3257
I1
ss(g3121
g3122
tp4341
(dp4342
g3123
I1
ss(g3353
g3354
tp4343
(dp4344
g3355
I1
ss(g3109
g3110
tp4345
(dp4346
g3111
I1
ss(g3246
g3247
tp4347
(dp4348
g311
I1
ss(g3143
g3144
tp4349
(dp4350
g3145
I1
ss(g3230
g3231
tp4351
(dp4352
g3232
I1
ss(g3498
g3499
tp4353
(dp4354
g3500
I1
ss(g3440
g3441
tp4355
(dp4356
g3442
I1
ss(g3355
g3356
tp4357
(dp4358
g3357
I1
ss(g3185
g3186
tp4359
(dp4360
g3187
I1
ss(g3431
g3432
tp4361
(dp4362
g3433
I1
ss(g3221
g3222
tp4363
(dp4364
g3223
I1
ss(g3438
g3439
tp4365
(dp4366
g3456
I1
sg3440
I1
ss(g3277
g3278
tp4367
(dp4368
g3279
I1
ss(g3281
g3282
tp4369
(dp4370
g3283
I1
ss(g3083
g3084
tp4371
(dp4372
g3085
I1
ss(g3520
g3521
tp4373
(dp4374
g3522
I1
ss(g3231
g3232
tp4375
(dp4376
g3233
I1
ss(g3513
g3514
tp4377
(dp4378
g3515
I1
ss(g3079
g3080
tp4379
(dp4380
g311
I1
ss(g3210
g3211
tp4381
(dp4382
g3212
I1
ss(g3203
g3204
tp4383
(dp4384
g3205
I1
ss(g3292
g3293
tp4385
(dp4386
g52
I1
ss(g3216
g3217
tp4387
(dp4388
g3218
I1
ss(g3433
g3434
tp4389
(dp4390
g3435
I1
ss(g3264
g3265
tp4391
(dp4392
g3384
I1
sg3266
I1
ss(g3448
g3449
tp4393
(dp4394
g3467
I1
sg3450
I1
ss(g3351
g3352
tp4395
(dp4396
g3353
I1
ss(g302
g3494
tp4397
(dp4398
g3495
I1
ss(g52
g3115
tp4399
(dp4400
g3116
I1
ss(g3093
g3094
tp4401
(dp4402
g3095
I1
ss(g3082
g3083
tp4403
(dp4404
g3084
I1
ss(g3152
g3153
tp4405
(dp4406
g3154
I1
ss(g3243
g3244
tp4407
(dp4408
g3245
I1
ss(g3171
g3172
tp4409
(dp4410
g3173
I1
ss(g3327
g3328
tp4411
(dp4412
g3329
I1
ss(g3139
g3140
tp4413
(dp4414
g3141
I1
ss(g3487
g3488
tp4415
(dp4416
g3489
I1
ss(g3206
g3207
tp4417
(dp4418
g3208
I1
ss(g3089
g3090
tp4419
(dp4420
g3091
I1
ss(g3125
g3126
tp4421
(dp4422
g3127
I1
ss(g3055
g3056
tp4423
(dp4424
g3057
I1
ss(g3488
g3489
tp4425
(dp4426
g3490
I1
ss(g3301
g3302
tp4427
(dp4428
g3303
I1
ss(g3444
g3445
tp4429
(dp4430
g3446
I2
ss(g3037
g3038
tp4431
(dp4432
g3039
I1
ss(g3337
g3338
tp4433
(dp4434
g3339
I1
sg311
I1
ss(g3220
g3221
tp4435
(dp4436
g3361
I1
sg3222
I1
ss(g3477
g3478
tp4437
(dp4438
g3479
I1
ss(g3325
g3326
tp4439
(dp4440
g3327
I1
ss(g3285
g52
tp4441
(dp4442
g3371
I1
sg3286
I1
ss(g52
g3182
tp4443
(dp4444
g3183
I1
ss(g3249
g3250
tp4445
(dp4446
g3251
I1
ss(g3025
g3026
tp4447
(dp4448
g3027
I1
ss(g302
g3471
tp4449
(dp4450
g3472
I1
ss(g3187
g3188
tp4451
(dp4452
g3189
I1
ss(g3164
g3165
tp4453
(dp4454
g3166
I1
ss(g3126
g3127
tp4455
(dp4456
g3128
I1
ss(g302
g3477
tp4457
(dp4458
g3478
I1
sssg664
(g3136
g3098
g3082
g3477
g3162
g3249
g3471
g3494
g3180
g3216
g3063
g3238
g3349
g3201
g3114
g3197
g3437
g3481
g37
g3264
g3390
g3297
g3323
g3020
tp4459
sg666
(lp4460
I1
aI2
aI3
aI4
aI5
aI7
aI8
aI9
aI10
aI12
aI13
aI14
aI15
aI16
aI19
aI20
aI22
aI23
aI25
aI26
aI27
aI28
aI29
aI32
asg668
I2
sbsg668
I2
sbag1
(g2
g3
Ntp4461
Rp4462
(dp4463
g7
I01
sg8
Vthey want to drag humanity back to an age of unquestioning dogma and unrelenting conflict. who among you would feel safe in the middle east? who would be safe in europe? who would be safe in america? who would be safe anywhere? there are those who believe that a nuclear-armed iran can be deterred like the soviet union. militant jihadists behave very differently from secular marxists. there were no soviet suicide bombers. yet iran produces hordes of them. deterrence worked with the soviets, because every time the soviets faced a choice between their ideology and their survival, they chose their survival. but deterrence may not work with the iranians once they get nuclear weapons. shockingly, some people have begun to peddle the absurd notion that a nuclear-armed iran would actually stabilize the middle east. for iran, amassing enough enriched uranium is far more difficult than producing the nuclear fuse. let me show you. i brought a diagram for you. here\u2019s the diagram. before iran completes the second stage of nuclear enrichment necessary to make a bomb. do we want to risk the security of the world on the assumption that we would find in time a small workshop in a country half the size of europe? two days ago, from this podium, president obama reiterated that the threat of a nuclear-armed iran cannot be contained. these are the timeless values of my people and these are the jewish people\u2019s greatest gift to mankind. are we to believe that rouhani, the national security adviser of iran at the time, knew nothing about these attacks? distinguished delegates, distinguished delegates from so many lands, wow, sustained applause for the prime minister of israel in the general assembly? the change may be coming sooner than i thought. now here\u2019s the tragedy, because, see, the palestinians are not only trapped in the past, their leaders are poisoning the future. this is child abuse.
p4464
sg10
(lp4465
(lp4466
Vthey
p4467
aVwant
p4468
aVto
p4469
aVdrag
p4470
aVhumanity
p4471
aVback
p4472
aVto
p4473
aVan
p4474
aVage
p4475
aVof
p4476
aVunquestioning
p4477
aVdogma
p4478
aVand
p4479
aVunrelenting
p4480
aVconflict.
p4481
aa(lp4482
Vwho
p4483
aVamong
p4484
aVyou
p4485
aVwould
p4486
aVfeel
p4487
aVsafe
p4488
aVin
p4489
aVthe
p4490
aVmiddle
p4491
aVeast?
p4492
aVwho
p4493
aVwould
p4494
aVbe
p4495
aVsafe
p4496
aVin
p4497
aVeurope?
p4498
aVwho
p4499
aVwould
p4500
aVbe
p4501
aVsafe
p4502
aVin
p4503
aVamerica?
p4504
aVwho
p4505
aVwould
p4506
aVbe
p4507
aVsafe
p4508
aVanywhere?
p4509
aa(lp4510
Vthere
p4511
aVare
p4512
aVthose
p4513
aVwho
p4514
aVbelieve
p4515
aVthat
p4516
ag52
aVnuclear-armed
p4517
aViran
p4518
aVcan
p4519
aVbe
p4520
aVdeterred
p4521
aVlike
p4522
aVthe
p4523
aVsoviet
p4524
aVunion.
p4525
aa(lp4526
Vmilitant
p4527
aVjihadists
p4528
aVbehave
p4529
aVvery
p4530
aVdifferently
p4531
aVfrom
p4532
aVsecular
p4533
aVmarxists.
p4534
aVthere
p4535
aVwere
p4536
aVno
p4537
aVsoviet
p4538
aVsuicide
p4539
aVbombers.
p4540
aVyet
p4541
aViran
p4542
aVproduces
p4543
aVhordes
p4544
aVof
p4545
aVthem.
p4546
aa(lp4547
Vdeterrence
p4548
aVworked
p4549
aVwith
p4550
aVthe
p4551
aVsoviets,
p4552
aVbecause
p4553
aVevery
p4554
aVtime
p4555
aVthe
p4556
aVsoviets
p4557
aVfaced
p4558
ag52
aVchoice
p4559
aVbetween
p4560
aVtheir
p4561
aVideology
p4562
aVand
p4563
aVtheir
p4564
aVsurvival,
p4565
aVthey
p4566
aVchose
p4567
aVtheir
p4568
aVsurvival.
p4569
aa(lp4570
Vbut
p4571
aVdeterrence
p4572
aVmay
p4573
aVnot
p4574
aVwork
p4575
aVwith
p4576
aVthe
p4577
aViranians
p4578
aVonce
p4579
aVthey
p4580
aVget
p4581
aVnuclear
p4582
aVweapons.
p4583
aa(lp4584
Vshockingly,
p4585
aVsome
p4586
aVpeople
p4587
aVhave
p4588
aVbegun
p4589
aVto
p4590
aVpeddle
p4591
aVthe
p4592
aVabsurd
p4593
aVnotion
p4594
aVthat
p4595
ag52
aVnuclear-armed
p4596
aViran
p4597
aVwould
p4598
aVactually
p4599
aVstabilize
p4600
aVthe
p4601
aVmiddle
p4602
aVeast.
p4603
aa(lp4604
Vfor
p4605
aViran,
p4606
aVamassing
p4607
aVenough
p4608
aVenriched
p4609
aVuranium
p4610
aVis
p4611
aVfar
p4612
aVmore
p4613
aVdifficult
p4614
aVthan
p4615
aVproducing
p4616
aVthe
p4617
aVnuclear
p4618
aVfuse.
p4619
aa(lp4620
Vlet
p4621
aVme
p4622
aVshow
p4623
aVyou.
p4624
ag37
aVbrought
p4625
ag52
aVdiagram
p4626
aVfor
p4627
aVyou.
p4628
aVhere\u2019s
p4629
aVthe
p4630
aVdiagram.
p4631
aa(lp4632
Vbefore
p4633
aViran
p4634
aVcompletes
p4635
aVthe
p4636
aVsecond
p4637
aVstage
p4638
aVof
p4639
aVnuclear
p4640
aVenrichment
p4641
aVnecessary
p4642
aVto
p4643
aVmake
p4644
ag52
aVbomb.
p4645
aa(lp4646
Vdo
p4647
aVwe
p4648
aVwant
p4649
aVto
p4650
aVrisk
p4651
aVthe
p4652
aVsecurity
p4653
aVof
p4654
aVthe
p4655
aVworld
p4656
aVon
p4657
aVthe
p4658
aVassumption
p4659
aVthat
p4660
aVwe
p4661
aVwould
p4662
aVfind
p4663
aVin
p4664
aVtime
p4665
ag52
aVsmall
p4666
aVworkshop
p4667
aVin
p4668
ag52
aVcountry
p4669
aVhalf
p4670
aVthe
p4671
aVsize
p4672
aVof
p4673
aVeurope?
p4674
aa(lp4675
Vtwo
p4676
aVdays
p4677
aVago,
p4678
aVfrom
p4679
aVthis
p4680
aVpodium,
p4681
aVpresident
p4682
aVobama
p4683
aVreiterated
p4684
aVthat
p4685
aVthe
p4686
aVthreat
p4687
aVof
p4688
ag52
aVnuclear-armed
p4689
aViran
p4690
aVcannot
p4691
aVbe
p4692
aVcontained.
p4693
aa(lp4694
Vthese
p4695
aVare
p4696
aVthe
p4697
aVtimeless
p4698
aVvalues
p4699
aVof
p4700
aVmy
p4701
aVpeople
p4702
aVand
p4703
aVthese
p4704
aVare
p4705
aVthe
p4706
aVjewish
p4707
aVpeople\u2019s
p4708
aVgreatest
p4709
aVgift
p4710
aVto
p4711
aVmankind.
p4712
aa(lp4713
Vare
p4714
aVwe
p4715
aVto
p4716
aVbelieve
p4717
aVthat
p4718
aVrouhani,
p4719
aVthe
p4720
aVnational
p4721
aVsecurity
p4722
aVadviser
p4723
aVof
p4724
aViran
p4725
aVat
p4726
aVthe
p4727
aVtime,
p4728
aVknew
p4729
aVnothing
p4730
aVabout
p4731
aVthese
p4732
aVattacks?
p4733
aa(lp4734
Vdistinguished
p4735
aVdelegates,
p4736
aa(lp4737
Vdistinguished
p4738
aVdelegates
p4739
aVfrom
p4740
aVso
p4741
aVmany
p4742
aVlands,
p4743
aa(lp4744
Vwow,
p4745
aVsustained
p4746
aVapplause
p4747
aVfor
p4748
aVthe
p4749
aVprime
p4750
aVminister
p4751
aVof
p4752
aVisrael
p4753
aVin
p4754
aVthe
p4755
aVgeneral
p4756
aVassembly?
p4757
aVthe
p4758
aVchange
p4759
aVmay
p4760
aVbe
p4761
aVcoming
p4762
aVsooner
p4763
aVthan
p4764
ag37
aVthought.
p4765
aa(lp4766
Vnow
p4767
aVhere\u2019s
p4768
aVthe
p4769
aVtragedy,
p4770
aVbecause,
p4771
aVsee,
p4772
aVthe
p4773
aVpalestinians
p4774
aVare
p4775
aVnot
p4776
aVonly
p4777
aVtrapped
p4778
aVin
p4779
aVthe
p4780
aVpast,
p4781
aVtheir
p4782
aVleaders
p4783
aVare
p4784
aVpoisoning
p4785
aVthe
p4786
aVfuture.
p4787
aa(lp4788
Vthis
p4789
aVis
p4790
aVchild
p4791
aVabuse.
p4792
aasg239
g1
(g240
g3
Ntp4793
Rp4794
(dp4795
g244
(dp4796
(g4592
g4593
tp4797
(dp4798
g4594
I1
ss(g4780
g4781
tp4799
(dp4800
g4782
I1
ss(g4617
g4618
tp4801
(dp4802
g4619
I1
ss(g4597
g4598
tp4803
(dp4804
g4599
I1
ss(g302
g4745
tp4805
(dp4806
g4746
I1
ss(g4652
g4653
tp4807
(dp4808
g4654
I1
ss(g4698
g4699
tp4809
(dp4810
g4700
I1
ss(g4683
g4684
tp4811
(dp4812
g4685
I1
ss(g302
g4548
tp4813
(dp4814
g4549
I1
ss(g4726
g4727
tp4815
(dp4816
g4728
I1
ss(g4563
g4564
tp4817
(dp4818
g4565
I1
ss(g4663
g4664
tp4819
(dp4820
g4665
I1
ss(g4602
g4603
tp4821
(dp4822
g311
I1
ss(g4710
g4711
tp4823
(dp4824
g4712
I1
ss(g37
g4625
tp4825
(dp4826
g52
I1
ss(g4635
g4636
tp4827
(dp4828
g4637
I1
ss(g4647
g4648
tp4829
(dp4830
g4649
I1
ss(g4738
g4739
tp4831
(dp4832
g4740
I1
ss(g4728
g4729
tp4833
(dp4834
g4730
I1
ss(g4573
g4574
tp4835
(dp4836
g4575
I1
ss(g4498
g4499
tp4837
(dp4838
g4500
I1
ss(g4722
g4723
tp4839
(dp4840
g4724
I1
ss(g4497
g4498
tp4841
(dp4842
g4499
I1
ss(g4760
g4761
tp4843
(dp4844
g4762
I1
ss(g4679
g4680
tp4845
(dp4846
g4681
I1
ss(g4530
g4531
tp4847
(dp4848
g4532
I1
ss(g4503
g4504
tp4849
(dp4850
g4505
I1
ss(g52
g4645
tp4851
(dp4852
g311
I1
ss(g4580
g4581
tp4853
(dp4854
g4582
I1
ss(g4723
g4724
tp4855
(dp4856
g4725
I1
ss(g4670
g4671
tp4857
(dp4858
g4672
I1
ss(g4659
g4660
tp4859
(dp4860
g4661
I1
ss(g4578
g4579
tp4861
(dp4862
g4580
I1
ss(g4701
g4702
tp4863
(dp4864
g4703
I1
ss(g4716
g4717
tp4865
(dp4866
g4718
I1
ss(g4782
g4783
tp4867
(dp4868
g4784
I1
ss(g4655
g4656
tp4869
(dp4870
g4657
I1
ss(g4514
g4515
tp4871
(dp4872
g4516
I1
ss(g4469
g4470
tp4873
(dp4874
g4471
I1
ss(g302
g4714
tp4875
(dp4876
g4715
I1
ss(g4759
g4760
tp4877
(dp4878
g4761
I1
ss(g4773
g4774
tp4879
(dp4880
g4775
I1
ss(g4725
g4726
tp4881
(dp4882
g4727
I1
ss(g4477
g4478
tp4883
(dp4884
g4479
I1
ss(g4523
g4524
tp4885
(dp4886
g4525
I1
ss(g4621
g4622
tp4887
(dp4888
g4623
I1
ss(g4671
g4672
tp4889
(dp4890
g4673
I1
ss(g4535
g4536
tp4891
(dp4892
g4537
I1
ss(g4648
g4649
tp4893
(dp4894
g4650
I1
ss(g4552
g4553
tp4895
(dp4896
g4554
I1
ss(g4719
g4720
tp4897
(dp4898
g4721
I1
ss(g4587
g4588
tp4899
(dp4900
g4589
I1
ss(g4485
g4486
tp4901
(dp4902
g4487
I1
ss(g4605
g4606
tp4903
(dp4904
g4607
I1
ss(g4529
g4530
tp4905
(dp4906
g4531
I1
ss(g4594
g4595
tp4907
(dp4908
g52
I1
ss(g4789
g4790
tp4909
(dp4910
g4791
I1
ss(g302
g4511
tp4911
(dp4912
g4512
I1
ss(g4638
g4639
tp4913
(dp4914
g4640
I1
ss(g4484
g4485
tp4915
(dp4916
g4486
I1
ss(g4589
g4590
tp4917
(dp4918
g4591
I1
ss(g4553
g4554
tp4919
(dp4920
g4555
I1
ss(g4622
g4623
tp4921
(dp4922
g4624
I1
ss(g302
g4605
tp4923
(dp4924
g4606
I1
ss(g4785
g4786
tp4925
(dp4926
g4787
I1
ss(g4491
g4492
tp4927
(dp4928
g4493
I1
ss(g4625
g52
tp4929
(dp4930
g4626
I1
ss(g4665
g52
tp4931
(dp4932
g4666
I1
ss(g4528
g4529
tp4933
(dp4934
g4530
I1
ss(g4756
g4757
tp4935
(dp4936
g4758
I1
ss(g4644
g52
tp4937
(dp4938
g4645
I1
ss(g4636
g4637
tp4939
(dp4940
g4638
I1
ss(g4608
g4609
tp4941
(dp4942
g4610
I1
ss(g4715
g4716
tp4943
(dp4944
g4717
I1
ss(g4654
g4655
tp4945
(dp4946
g4656
I1
ss(g4699
g4700
tp4947
(dp4948
g4701
I1
ss(g4486
g4487
tp4949
(dp4950
g4488
I1
ss(g4565
g4566
tp4951
(dp4952
g4567
I1
ss(g4707
g4708
tp4953
(dp4954
g4709
I1
ss(g4669
g4670
tp4955
(dp4956
g4671
I1
ss(g4512
g4513
tp4957
(dp4958
g4514
I1
ss(g4718
g4719
tp4959
(dp4960
g4720
I1
ss(g4752
g4753
tp4961
(dp4962
g4754
I1
ss(g4555
g4556
tp4963
(dp4964
g4557
I1
ss(g4781
g4782
tp4965
(dp4966
g4783
I1
ss(g4590
g4591
tp4967
(dp4968
g4592
I1
ss(g4495
g4496
tp4969
(dp4970
g4509
I1
sg4497
I2
ss(g4545
g4546
tp4971
(dp4972
g311
I1
ss(g4508
g4509
tp4973
(dp4974
g311
I1
ss(g4688
g52
tp4975
(dp4976
g4689
I1
ss(g4746
g4747
tp4977
(dp4978
g4748
I1
ss(g4685
g4686
tp4979
(dp4980
g4687
I1
ss(g4777
g4778
tp4981
(dp4982
g4779
I1
ss(g4614
g4615
tp4983
(dp4984
g4616
I1
ss(g4582
g4583
tp4985
(dp4986
g311
I1
ss(g4735
g4736
tp4987
(dp4988
g311
I1
ss(g302
g4467
tp4989
(dp4990
g4468
I1
ss(g4700
g4701
tp4991
(dp4992
g4702
I1
ss(g4657
g4658
tp4993
(dp4994
g4659
I1
ss(g4524
g4525
tp4995
(dp4996
g311
I1
ss(g52
g4626
tp4997
(dp4998
g4627
I1
ss(g302
g4647
tp4999
(dp5000
g4648
I1
ss(g4471
g4472
tp5001
(dp5002
g4473
I1
ss(g302
g4676
tp5003
(dp5004
g4677
I1
ss(g4574
g4575
tp5005
(dp5006
g4576
I1
ss(g4539
g4540
tp5007
(dp5008
g4541
I1
ss(g4475
g4476
tp5009
(dp5010
g4477
I1
ss(g4585
g4586
tp5011
(dp5012
g4587
I1
ss(g4767
g4768
tp5013
(dp5014
g4769
I1
ss(g4479
g4480
tp5015
(dp5016
g4481
I1
ss(g4676
g4677
tp5017
(dp5018
g4678
I1
ss(g4662
g4663
tp5019
(dp5020
g4664
I1
ss(g4786
g4787
tp5021
(dp5022
g311
I1
ss(g4519
g4520
tp5023
(dp5024
g4521
I1
ss(g4568
g4569
tp5025
(dp5026
g311
I1
ss(g4613
g4614
tp5027
(dp5028
g4615
I1
ss(g4706
g4707
tp5029
(dp5030
g4708
I1
ss(g4579
g4580
tp5031
(dp5032
g4581
I1
ss(g4606
g4607
tp5033
(dp5034
g4608
I1
ss(g4480
g4481
tp5035
(dp5036
g311
I1
ss(g302
g4767
tp5037
(dp5038
g4768
I1
ss(g4518
g4519
tp5039
(dp5040
g4520
I1
ss(g4610
g4611
tp5041
(dp5042
g4612
I1
ss(g4641
g4642
tp5043
(dp5044
g4643
I1
ss(g302
g4695
tp5045
(dp5046
g4696
I1
ss(g4711
g4712
tp5047
(dp5048
g311
I1
ss(g4627
g4628
tp5049
(dp5050
g4629
I1
ss(g4691
g4692
tp5051
(dp5052
g4693
I1
ss(g4690
g4691
tp5053
(dp5054
g4692
I1
ss(g4588
g4589
tp5055
(dp5056
g4590
I1
ss(g4624
g37
tp5057
(dp5058
g4625
I1
ss(g4557
g4558
tp5059
(dp5060
g52
I1
ss(g4684
g4685
tp5061
(dp5062
g4686
I1
ss(g4556
g4557
tp5063
(dp5064
g4558
I1
ss(g4630
g4631
tp5065
(dp5066
g311
I1
ss(g4593
g4594
tp5067
(dp5068
g4595
I1
ss(g4678
g4679
tp5069
(dp5070
g4680
I1
ss(g4527
g4528
tp5071
(dp5072
g4529
I1
ss(g4513
g4514
tp5073
(dp5074
g4515
I1
ss(g4672
g4673
tp5075
(dp5076
g4674
I1
ss(g4599
g4600
tp5077
(dp5078
g4601
I1
ss(g302
g4621
tp5079
(dp5080
g4622
I1
ss(g4651
g4652
tp5081
(dp5082
g4653
I1
ss(g302
g4571
tp5083
(dp5084
g4572
I1
ss(g4721
g4722
tp5085
(dp5086
g4723
I1
ss(g4668
g52
tp5087
(dp5088
g4669
I1
ss(g4598
g4599
tp5089
(dp5090
g4600
I1
ss(g4607
g4608
tp5091
(dp5092
g4609
I1
ss(g4581
g4582
tp5093
(dp5094
g4583
I1
ss(g4755
g4756
tp5095
(dp5096
g4757
I1
ss(g4753
g4754
tp5097
(dp5098
g4755
I1
ss(g4615
g4616
tp5099
(dp5100
g4617
I1
ss(g4577
g4578
tp5101
(dp5102
g4579
I1
ss(g4517
g4518
tp5103
(dp5104
g4691
I1
sg4519
I1
sg4598
I1
ss(g4623
g4624
tp5105
(dp5106
g37
I1
ss(g4633
g4634
tp5107
(dp5108
g4635
I1
ss(g4575
g4576
tp5109
(dp5110
g4577
I1
ss(g4720
g4721
tp5111
(dp5112
g4722
I1
ss(g4549
g4550
tp5113
(dp5114
g4551
I1
ss(g4653
g4654
tp5115
(dp5116
g4655
I1
ss(g4778
g4779
tp5117
(dp5118
g4780
I1
ss(g4747
g4748
tp5119
(dp5120
g4749
I1
ss(g4470
g4471
tp5121
(dp5122
g4472
I1
ss(g302
g4735
tp5123
(dp5124
g4736
I1
sg4739
I1
ss(g4709
g4710
tp5125
(dp5126
g4711
I1
ss(g4667
g4668
tp5127
(dp5128
g52
I1
ss(g4561
g4562
tp5129
(dp5130
g4563
I1
ss(g4791
g4792
tp5131
(dp5132
g311
I1
ss(g4666
g4667
tp5133
(dp5134
g4668
I1
ss(g4771
g4772
tp5135
(dp5136
g4773
I1
ss(g4660
g4661
tp5137
(dp5138
g4662
I1
ss(g4708
g4709
tp5139
(dp5140
g4710
I1
ss(g4770
g4771
tp5141
(dp5142
g4772
I1
ss(g302
g4633
tp5143
(dp5144
g4634
I1
ss(g4609
g4610
tp5145
(dp5146
g4611
I1
ss(g4696
g4697
tp5147
(dp5148
g4707
I1
sg4698
I1
ss(g4629
g4630
tp5149
(dp5150
g4770
I1
sg4631
I1
ss(g4680
g4681
tp5151
(dp5152
g4682
I1
ss(g4560
g4561
tp5153
(dp5154
g4562
I1
ss(g52
g4666
tp5155
(dp5156
g4667
I1
ss(g4478
g4479
tp5157
(dp5158
g4480
I1
ss(g4686
g4687
tp5159
(dp5160
g4688
I1
ss(g4695
g4696
tp5161
(dp5162
g4697
I2
ss(g4639
g4640
tp5163
(dp5164
g4641
I1
ss(g4758
g4759
tp5165
(dp5166
g4760
I1
ss(g4472
g4473
tp5167
(dp5168
g4474
I1
ss(g4741
g4742
tp5169
(dp5170
g4743
I1
ss(g302
g4789
tp5171
(dp5172
g4790
I1
ss(g4749
g4750
tp5173
(dp5174
g4751
I1
ss(g52
g4669
tp5175
(dp5176
g4670
I1
ss(g4628
g4629
tp5177
(dp5178
g4630
I1
ss(g4740
g4741
tp5179
(dp5180
g4742
I1
ss(g4775
g4776
tp5181
(dp5182
g4777
I1
ss(g4730
g4731
tp5183
(dp5184
g4732
I1
ss(g4784
g4785
tp5185
(dp5186
g4786
I1
ss(g4542
g4543
tp5187
(dp5188
g4544
I1
ss(g4516
g52
tp5189
(dp5190
g4517
I2
ss(g4776
g4777
tp5191
(dp5192
g4778
I1
ss(g302
g4527
tp5193
(dp5194
g4528
I1
ss(g4731
g4732
tp5195
(dp5196
g4733
I1
ss(g4538
g4539
tp5197
(dp5198
g4540
I1
ss(g4488
g4489
tp5199
(dp5200
g4490
I1
sg4504
I1
sg4498
I1
ss(g4762
g4763
tp5201
(dp5202
g4764
I1
ss(g4534
g4535
tp5203
(dp5204
g4536
I1
ss(g4571
g4572
tp5205
(dp5206
g4573
I1
ss(g4748
g4749
tp5207
(dp5208
g4750
I1
ss(g4751
g4752
tp5209
(dp5210
g4753
I1
ss(g4536
g4537
tp5211
(dp5212
g4538
I1
ss(g4493
g4494
tp5213
(dp5214
g4495
I3
ss(g4634
g4635
tp5215
(dp5216
g4636
I1
ss(g4611
g4612
tp5217
(dp5218
g4613
I1
ss(g4661
g4662
tp5219
(dp5220
g4663
I1
ss(g4702
g4703
tp5221
(dp5222
g4704
I1
ss(g4591
g4592
tp5223
(dp5224
g4593
I1
ss(g4468
g4469
tp5225
(dp5226
g4470
I1
sg4651
I1
ss(g4504
g4505
tp5227
(dp5228
g4506
I1
ss(g4474
g4475
tp5229
(dp5230
g4476
I1
ss(g4757
g4758
tp5231
(dp5232
g4759
I1
ss(g4682
g4683
tp5233
(dp5234
g4684
I1
ss(g4515
g4516
tp5235
(dp5236
g52
I1
sg4719
I1
ss(g4483
g4484
tp5237
(dp5238
g4485
I1
ss(g4656
g4657
tp5239
(dp5240
g4658
I1
ss(g4533
g4534
tp5241
(dp5242
g4535
I1
ss(g4650
g4651
tp5243
(dp5244
g4652
I1
ss(g4548
g4549
tp5245
(dp5246
g4550
I1
ss(g4703
g4704
tp5247
(dp5248
g4705
I1
ss(g4658
g4659
tp5249
(dp5250
g4660
I1
ss(g4745
g4746
tp5251
(dp5252
g4747
I1
ss(g4677
g4678
tp5253
(dp5254
g4679
I1
ss(g4554
g4555
tp5255
(dp5256
g4556
I1
ss(g4558
g52
tp5257
(dp5258
g4559
I1
ss(g4618
g4619
tp5259
(dp5260
g311
I1
ss(g302
g4483
tp5261
(dp5262
g4484
I1
ss(g4643
g4644
tp5263
(dp5264
g52
I1
ss(g4487
g4488
tp5265
(dp5266
g4489
I1
ss(g4543
g4544
tp5267
(dp5268
g4545
I1
ss(g4572
g4573
tp5269
(dp5270
g4574
I1
ss(g4790
g4791
tp5271
(dp5272
g4792
I1
ss(g4687
g4688
tp5273
(dp5274
g52
I1
ss(g4564
g4565
tp5275
(dp5276
g4566
I1
ss(g4490
g4491
tp5277
(dp5278
g4603
I1
sg4492
I1
ss(g4727
g4728
tp5279
(dp5280
g4729
I1
ss(g4729
g4730
tp5281
(dp5282
g4731
I1
ss(g4492
g4493
tp5283
(dp5284
g4494
I1
ss(g4783
g4784
tp5285
(dp5286
g4785
I1
ss(g4586
g4587
tp5287
(dp5288
g4588
I1
ss(g4532
g4533
tp5289
(dp5290
g4534
I1
ss(g4600
g4601
tp5291
(dp5292
g4602
I1
ss(g4764
g37
tp5293
(dp5294
g4765
I1
ss(g4467
g4468
tp5295
(dp5296
g4469
I1
ss(g302
g302
tp5297
(dp5298
g4647
I1
sg4585
I1
sg4483
I1
sg4605
I1
sg4745
I1
sg4695
I1
sg4511
I1
sg4676
I1
sg4571
I1
sg4527
I1
sg4789
I1
sg4548
I1
sg4621
I1
sg4714
I1
sg4467
I1
sg4767
I1
sg4735
I2
sg4633
I1
ss(g4476
g4477
tp5299
(dp5300
g4478
I1
ss(g4732
g4733
tp5301
(dp5302
g311
I1
ss(g4562
g4563
tp5303
(dp5304
g4564
I1
ss(g4739
g4740
tp5305
(dp5306
g4741
I1
ss(g4724
g4725
tp5307
(dp5308
g4726
I1
ss(g4537
g4538
tp5309
(dp5310
g4539
I1
ss(g4761
g4762
tp5311
(dp5312
g4763
I1
ss(g4521
g4522
tp5313
(dp5314
g4523
I1
ss(g37
g4765
tp5315
(dp5316
g311
I1
ss(g4473
g4474
tp5317
(dp5318
g4475
I1
ss(g4750
g4751
tp5319
(dp5320
g4752
I1
ss(g4559
g4560
tp5321
(dp5322
g4561
I1
ss(g52
g4559
tp5323
(dp5324
g4560
I1
ss(g4626
g4627
tp5325
(dp5326
g4628
I1
ss(g52
g4517
tp5327
(dp5328
g4518
I3
ss(g4494
g4495
tp5329
(dp5330
g4496
I3
ss(g4769
g4770
tp5331
(dp5332
g4771
I1
ss(g4714
g4715
tp5333
(dp5334
g4716
I1
ss(g4664
g4665
tp5335
(dp5336
g52
I1
ss(g4692
g4693
tp5337
(dp5338
g311
I1
ss(g4520
g4521
tp5339
(dp5340
g4522
I1
ss(g4640
g4641
tp5341
(dp5342
g4642
I1
ss(g4531
g4532
tp5343
(dp5344
g4533
I1
ss(g4522
g4523
tp5345
(dp5346
g4524
I1
ss(g4612
g4613
tp5347
(dp5348
g4614
I1
ss(g4616
g4617
tp5349
(dp5350
g4618
I1
ss(g4541
g4542
tp5351
(dp5352
g4543
I1
ss(g4742
g4743
tp5353
(dp5354
g311
I1
ss(g4763
g4764
tp5355
(dp5356
g37
I1
ss(g4673
g4674
tp5357
(dp5358
g311
I1
ss(g4772
g4773
tp5359
(dp5360
g4774
I1
ss(g4774
g4775
tp5361
(dp5362
g4776
I1
ss(g4567
g4568
tp5363
(dp5364
g4569
I1
ss(g4642
g4643
tp5365
(dp5366
g4644
I1
ss(g4566
g4567
tp5367
(dp5368
g4568
I1
ss(g4697
g4698
tp5369
(dp5370
g4699
I1
ss(g302
g4585
tp5371
(dp5372
g4586
I1
ss(g4681
g4682
tp5373
(dp5374
g4683
I1
ss(g4489
g4490
tp5375
(dp5376
g4491
I1
sg4781
I1
sg4756
I1
ss(g4511
g4512
tp5377
(dp5378
g4513
I1
ss(g4637
g4638
tp5379
(dp5380
g4639
I1
ss(g4550
g4551
tp5381
(dp5382
g4578
I1
sg4552
I1
ss(g4540
g4541
tp5383
(dp5384
g4542
I1
ss(g4551
g4552
tp5385
(dp5386
g4553
I1
ss(g4544
g4545
tp5387
(dp5388
g4546
I1
sssg664
(g4647
g4585
g4483
g4605
g4745
g4695
g4511
g4676
g4571
g4527
g4789
g4548
g4621
g4714
g4467
g4767
g4735
g4633
tp5389
sg666
(lp5390
I1
aI2
aI3
aI4
aI5
aI6
aI7
aI8
aI9
aI10
aI11
aI12
aI13
aI14
aI15
aI16
aI18
aI19
asg668
I2
sbsg668
I2
sba.